(lp0
F76.908000000000001
aF77.391999999999996
aF79.412000000000006
aF79.576999999999998
aF79.950000000000003
aF80.150000000000006
aF80.152000000000001
aF80.313000000000002
aF80.325999999999993
aF80.477000000000004
aF80.903000000000006
aF80.992999999999995
aF81.269999999999996
aF81.731999999999999
aF81.866
aF81.867000000000004
aF82.310000000000002
aF82.512
aF82.521000000000001
aF82.623000000000005
aF82.626999999999995
aF82.671000000000006
aF82.677999999999997
aF82.861000000000004
aF83.028000000000006
aF83.028000000000006
aF83.102000000000004
aF83.207999999999998
aF83.284999999999997
aF83.364000000000004
aF83.543999999999997
aF83.927999999999997
aF84.203999999999994
aF84.218000000000004
aF84.283000000000001
aF84.307000000000002
aF84.363
aF84.393000000000001
aF84.394000000000005
aF84.606999999999999
aF84.631
aF84.894000000000005
aF85.055000000000007
aF85.075000000000003
aF85.129999999999995
aF85.292000000000002
aF85.340000000000003
aF85.790000000000006
aF85.846000000000004
aF85.846000000000004
aF85.866
aF85.872
aF86.170000000000002
aF86.287999999999997
aF86.491
aF86.504999999999995
aF86.656000000000006
aF86.930999999999997
aF87.159999999999997
aF87.216999999999999
aF87.584000000000003
aF87.614000000000004
aF88.033000000000001
aF88.364999999999995
aF88.397000000000006
aF88.406000000000006
aF88.453000000000003
aF88.787999999999997
aF89.040000000000006
aF89.105999999999995
aF89.117000000000004
aF89.263999999999996
aF89.290999999999997
aF89.293000000000006
aF89.546000000000006
aF89.927000000000007
aF89.991
aF90.200000000000003
aF90.245000000000005
aF90.614000000000004
aF90.992000000000004
aF91.388000000000005
aF91.472999999999999
aF91.694000000000003
aF91.763000000000005
aF92.131
aF92.141000000000005
aF92.239999999999995
aF92.340999999999994
aF92.430999999999997
aF92.643000000000001
aF92.760000000000005
aF92.768000000000001
aF92.769999999999996
aF92.829999999999998
aF93.462000000000003
aF93.614999999999995
aF93.861000000000004
aF94.325000000000003
aF94.537999999999997
aF95.459000000000003
aF95.462000000000003
aF95.572000000000003
aF95.573999999999998
aF95.599000000000004
aF95.599999999999994
aF95.676000000000002
aF95.805999999999997
aF95.808000000000007
aF96.144000000000005
aF96.147999999999996
aF96.227000000000004
aF96.322999999999993
aF96.329999999999998
aF96.652000000000001
aF96.802000000000007
aF96.852000000000004
aF96.855000000000004
aF96.867000000000004
aF97.024000000000001
aF97.024000000000001
aF97.096999999999994
aF97.423000000000002
aF97.5
aF97.5
aF97.557000000000002
aF97.658000000000001
aF97.670000000000002
aF97.799999999999997
aF97.820999999999998
aF97.947000000000003
aF97.950999999999993
aF98.106999999999999
aF98.363
aF98.445999999999998
aF98.534000000000006
aF98.536000000000001
aF98.608000000000004
aF99.024000000000001
aF99.057000000000002
aF99.218000000000004
aF99.328000000000003
aF99.605999999999995
aF99.611999999999995
aF99.787000000000006
aF100.295
aF100.366
aF100.63
aF100.654
aF100.676
aF100.754
aF101.042
aF101.092
aF101.471
aF101.672
aF101.892
aF102.215
aF102.458
aF102.499
aF102.536
aF102.846
aF102.848
aF103.23399999999999
aF103.547
aF103.812
aF103.89700000000001
aF103.956
aF104.306
aF104.342
aF104.812
aF104.91500000000001
aF105.002
aF105.05800000000001
aF105.143
aF105.154
aF105.273
aF105.553
aF105.75
aF105.803
aF106.15300000000001
aF106.604
aF106.672
aF106.72799999999999
aF106.93300000000001
aF107.322
aF107.574
aF107.70699999999999
aF107.869
aF107.941
aF107.94499999999999
aF108.25
aF108.286
aF108.38800000000001
aF108.395
aF108.474
aF108.60299999999999
aF108.76600000000001
aF109.521
aF109.739
aF109.947
aF110.134
aF110.203
aF110.72199999999999
aF110.78100000000001
aF110.79600000000001
aF110.809
aF110.842
aF110.956
aF111.04000000000001
aF111.13500000000001
aF111.143
aF111.161
aF111.188
aF111.18899999999999
aF111.203
aF111.34999999999999
aF111.572
aF111.878
aF111.887
aF112.002
aF112.04900000000001
aF112.08199999999999
aF112.116
aF112.16500000000001
aF112.17
aF112.248
aF112.383
aF112.506
aF112.55
aF112.836
aF112.839
aF113.447
aF113.587
aF113.684
aF113.703
aF113.711
aF113.92
aF113.928
aF114.07299999999999
aF114.327
aF114.331
aF114.392
aF114.396
aF114.42100000000001
aF114.44
aF114.44199999999999
aF114.458
aF114.512
aF114.545
aF114.565
aF114.824
aF115.235
aF115.7
aF115.82599999999999
aF116.08199999999999
aF116.166
aF116.17700000000001
aF116.179
aF116.21299999999999
aF116.51600000000001
aF116.54000000000001
aF116.69499999999999
aF116.80200000000001
aF116.816
aF116.89
aF116.93600000000001
aF117.03400000000001
aF117.108
aF117.178
aF117.31999999999999
aF117.432
aF117.571
aF117.80200000000001
aF118.044
aF118.858
aF118.904
aF119.114
aF119.20999999999999
aF119.434
aF119.776
aF119.911
aF119.916
aF119.95699999999999
aF120.066
aF120.23
aF120.31699999999999
aF120.675
aF120.72
aF120.797
aF121.42100000000001
aF121.521
aF121.521
aF121.56699999999999
aF121.571
aF121.658
aF121.66200000000001
aF121.729
aF121.77800000000001
aF121.95699999999999
aF122.18000000000001
aF122.434
aF122.798
aF122.99299999999999
aF123.068
aF123.2
aF123.236
aF123.679
aF123.77500000000001
aF123.78700000000001
aF123.95999999999999
aF123.96299999999999
aF124.03
aF124.13200000000001
aF124.223
aF124.312
aF124.48
aF124.586
aF125.307
aF125.319
aF125.324
aF125.476
aF125.486
aF125.658
aF125.82899999999999
aF126.03400000000001
aF126.129
aF126.39400000000001
aF126.438
aF126.43899999999999
aF126.53400000000001
aF126.857
aF126.89400000000001
aF126.89400000000001
aF127.35899999999999
aF127.48699999999999
aF127.491
aF127.93000000000001
aF128.13200000000001
aF128.28299999999999
aF128.37799999999999
aF128.40700000000001
aF128.512
aF128.988
aF129.13999999999999
aF129.14699999999999
aF129.15100000000001
aF129.23099999999999
aF129.38499999999999
aF130.04300000000001
aF130.482
aF130.71600000000001
aF130.75700000000001
aF130.87799999999999
aF131.02799999999999
aF131.10499999999999
aF131.10900000000001
aF131.49600000000001
aF131.69800000000001
aF131.83799999999999
aF131.99199999999999
aF132.114
aF132.143
aF132.18700000000001
aF132.18799999999999
aF132.19999999999999
aF132.488
aF132.49100000000001
aF132.96600000000001
aF132.96899999999999
aF133.23500000000001
aF133.256
aF133.346
aF133.55199999999999
aF133.572
aF134.15100000000001
aF134.35400000000001
aF134.46600000000001
aF134.804
aF134.85300000000001
aF134.88900000000001
aF134.88999999999999
aF134.94300000000001
aF134.94399999999999
aF135.03800000000001
aF135.041
aF135.17500000000001
aF135.31299999999999
aF135.58199999999999
aF135.803
aF135.83199999999999
aF136.02600000000001
aF136.05500000000001
aF136.39599999999999
aF136.494
aF136.53100000000001
aF136.69399999999999
aF136.80099999999999
aF136.86699999999999
aF137.40799999999999
aF137.446
aF137.452
aF137.49700000000001
aF137.51300000000001
aF137.733
aF137.77199999999999
aF137.89599999999999
aF138.21299999999999
aF138.27099999999999
aF138.55600000000001
aF138.59999999999999
aF138.87200000000001
aF138.91399999999999
aF138.916
aF138.916
aF138.92699999999999
aF138.928
aF138.94999999999999
aF139.03299999999999
aF139.03700000000001
aF139.405
aF139.73400000000001
aF140.047
aF140.048
aF140.40799999999999
aF140.554
aF140.81899999999999
aF141.00999999999999
aF141.036
aF141.03800000000001
aF141.25299999999999
aF141.40600000000001
aF141.92099999999999
aF141.96199999999999
aF142.029
aF142.09999999999999
aF142.22399999999999
aF142.334
aF142.35400000000001
aF143.065
aF143.155
aF143.43000000000001
aF143.709
aF143.755
aF143.77500000000001
aF143.971
aF144.66300000000001
aF144.75700000000001
aF144.834
aF145.19999999999999
aF145.25
aF145.566
aF145.84
aF145.87200000000001
aF145.97499999999999
aF145.982
aF146.00700000000001
aF146.01499999999999
aF146.02500000000001
aF146.203
aF146.21299999999999
aF146.28200000000001
aF146.28399999999999
aF146.33199999999999
aF146.84399999999999
aF147.15199999999999
aF147.197
aF147.24199999999999
aF147.262
aF147.43000000000001
aF147.529
aF147.53100000000001
aF147.53299999999999
aF147.661
aF147.68100000000001
aF147.69499999999999
aF147.72200000000001
aF147.74299999999999
aF148.09
aF148.09200000000001
aF148.33600000000001
aF148.40799999999999
aF148.47399999999999
aF148.49600000000001
aF148.52500000000001
aF148.57499999999999
aF148.898
aF148.93600000000001
aF148.94
aF149.23400000000001
aF149.29300000000001
aF149.339
aF149.369
aF149.62799999999999
aF149.70599999999999
aF149.732
aF149.74600000000001
aF149.74700000000001
aF150.124
aF150.221
aF150.26400000000001
aF150.26599999999999
aF150.99700000000001
aF151.00700000000001
aF151.03200000000001
aF151.19800000000001
aF151.19900000000001
aF151.285
aF151.29300000000001
aF151.79900000000001
aF151.86799999999999
aF151.874
aF151.935
aF152.13300000000001
aF152.15199999999999
aF152.17400000000001
aF152.18899999999999
aF152.446
aF152.58199999999999
aF152.63200000000001
aF152.69300000000001
aF152.71199999999999
aF152.74000000000001
aF152.75200000000001
aF152.88
aF152.89099999999999
aF152.898
aF153.351
aF153.46700000000001
aF153.68199999999999
aF153.75700000000001
aF154.00399999999999
aF154.05600000000001
aF154.739
aF155.06299999999999
aF155.16399999999999
aF155.71000000000001
aF155.71199999999999
aF156.10499999999999
aF156.148
aF156.154
aF156.41300000000001
aF156.58600000000001
aF157.286
aF157.45500000000001
aF157.459
aF158.05000000000001
aF158.22399999999999
aF158.279
aF158.328
aF158.70500000000001
aF158.768
aF158.87799999999999
aF159.149
aF159.15000000000001
aF159.15600000000001
aF159.16399999999999
aF159.20400000000001
aF159.22399999999999
aF159.30199999999999
aF159.59700000000001
aF159.744
aF159.74600000000001
aF159.99299999999999
aF160.065
aF160.71299999999999
aF160.738
aF160.744
aF161.28800000000001
aF161.65100000000001
aF161.73500000000001
aF161.80199999999999
aF161.81899999999999
aF161.851
aF161.96299999999999
aF162.22499999999999
aF162.22900000000001
aF162.268
aF162.43100000000001
aF162.44
aF162.44399999999999
aF162.46299999999999
aF162.916
aF162.97
aF163.05799999999999
aF163.078
aF163.398
aF163.40000000000001
aF163.61199999999999
aF163.85599999999999
aF164.0
aF164.03800000000001
aF164.15199999999999
aF164.721
aF164.732
aF164.79900000000001
aF164.88499999999999
aF164.934
aF164.97999999999999
aF164.994
aF165.08600000000001
aF165.09100000000001
aF165.17699999999999
aF165.357
aF165.358
aF165.529
aF165.67099999999999
aF165.73099999999999
aF165.79300000000001
aF165.798
aF165.84700000000001
aF165.99000000000001
aF166.047
aF166.15199999999999
aF166.19800000000001
aF166.352
aF166.452
aF166.51400000000001
aF167.042
aF167.16499999999999
aF167.184
aF167.19499999999999
aF167.28200000000001
aF167.34299999999999
aF167.428
aF167.47499999999999
aF167.803
aF167.81
aF168.13800000000001
aF168.18600000000001
aF168.19
aF168.221
aF168.32900000000001
aF168.47900000000001
aF168.584
aF168.67400000000001
aF168.67400000000001
aF168.679
aF168.68600000000001
aF168.68799999999999
aF168.69900000000001
aF168.86699999999999
aF169.02600000000001
aF169.11199999999999
aF169.249
aF169.25
aF169.54599999999999
aF169.554
aF169.71600000000001
aF169.78700000000001
aF169.79599999999999
aF170.02000000000001
aF170.03
aF170.08600000000001
aF170.29300000000001
aF170.494
aF170.5
aF170.72200000000001
aF170.94
aF171.31399999999999
aF171.37
aF171.42599999999999
aF171.91900000000001
aF171.947
aF172.178
aF172.565
aF172.56999999999999
aF172.69
aF172.69999999999999
aF172.816
aF173.001
aF173.37200000000001
aF173.88999999999999
aF174.56999999999999
aF174.57300000000001
aF174.625
aF174.62799999999999
aF174.79300000000001
aF174.80199999999999
aF174.87700000000001
aF175.27199999999999
aF175.316
aF175.72200000000001
aF177.03299999999999
aF177.06700000000001
aF177.50399999999999
aF177.66200000000001
aF177.673
aF177.90000000000001
aF178.036
aF178.03999999999999
aF178.21000000000001
aF178.392
aF178.39599999999999
aF178.79900000000001
aF178.86099999999999
aF178.988
aF178.988
aF179.29400000000001
aF179.61099999999999
aF179.62899999999999
aF179.792
aF179.80000000000001
aF180.34800000000001
aF180.62799999999999
aF180.74799999999999
aF180.786
aF180.92400000000001
aF181.24199999999999
aF181.398
aF181.46700000000001
aF181.55099999999999
aF181.61099999999999
aF181.661
aF181.79900000000001
aF181.81200000000001
aF181.85499999999999
aF181.953
aF182.03800000000001
aF182.381
aF182.392
aF182.41
aF182.477
aF182.80600000000001
aF182.898
aF182.94900000000001
aF182.94999999999999
aF183.08799999999999
aF183.16399999999999
aF183.17400000000001
aF183.37799999999999
aF183.387
aF183.63200000000001
aF183.64400000000001
aF183.74100000000001
aF183.74799999999999
aF183.86600000000001
aF184.48099999999999
aF184.482
aF184.56700000000001
aF184.61500000000001
aF184.72800000000001
aF184.90299999999999
aF184.904
aF184.90600000000001
aF184.96000000000001
aF184.96199999999999
aF185.19999999999999
aF185.352
aF185.471
aF185.488
aF185.56999999999999
aF185.58199999999999
aF185.76499999999999
aF186.25999999999999
aF186.35900000000001
aF186.50899999999999
aF186.529
aF186.614
aF186.63
aF187.05199999999999
aF187.054
aF187.09700000000001
aF187.21600000000001
aF187.21600000000001
aF187.67699999999999
aF187.70400000000001
aF187.72999999999999
aF187.881
aF188.06800000000001
aF188.10300000000001
aF188.71799999999999
aF188.72200000000001
aF189.12700000000001
aF189.12899999999999
aF189.352
aF189.44999999999999
aF189.44999999999999
aF189.488
aF189.494
aF189.52199999999999
aF189.58099999999999
aF189.68299999999999
aF189.71600000000001
aF189.99600000000001
aF190.089
aF190.11000000000001
aF190.18100000000001
aF190.23699999999999
aF190.297
aF190.45500000000001
aF190.506
aF191.06899999999999
aF191.119
aF191.12100000000001
aF191.47999999999999
aF191.64500000000001
aF192.059
aF192.084
aF192.21600000000001
aF192.22
aF192.36500000000001
aF192.43000000000001
aF192.43799999999999
aF192.45099999999999
aF192.499
aF192.50899999999999
aF192.52699999999999
aF192.53399999999999
aF192.934
aF192.96600000000001
aF193.006
aF193.029
aF193.20099999999999
aF193.33799999999999
aF193.34899999999999
aF193.40100000000001
aF193.70099999999999
aF193.97900000000001
aF194.28200000000001
aF194.303
aF194.46000000000001
aF194.584
aF194.727
aF194.74199999999999
aF194.89400000000001
aF194.93700000000001
aF195.03100000000001
aF195.06800000000001
aF195.11799999999999
aF196.01599999999999
aF196.03200000000001
aF196.03800000000001
aF196.21799999999999
aF196.22200000000001
aF196.34200000000001
aF196.506
aF196.66200000000001
aF196.69499999999999
aF196.81899999999999
aF196.827
aF197.542
aF197.56299999999999
aF197.584
aF197.89099999999999
aF197.90000000000001
aF198.06100000000001
aF198.422
aF198.452
aF198.88300000000001
aF198.99199999999999
aF199.00800000000001
aF199.292
aF199.298
aF199.34700000000001
aF200.36199999999999
aF200.697
aF200.92500000000001
aF201.06200000000001
aF201.10499999999999
aF201.12799999999999
aF201.142
aF201.142
aF201.19499999999999
aF201.36699999999999
aF201.37
aF201.42400000000001
aF202.14699999999999
aF202.178
aF202.68199999999999
aF202.785
aF202.792
aF202.857
aF203.08799999999999
aF203.14599999999999
aF203.15299999999999
aF203.43000000000001
aF203.58099999999999
aF203.60599999999999
aF203.773
aF203.786
aF203.79599999999999
aF204.01300000000001
aF204.018
aF204.30500000000001
aF204.34800000000001
aF204.43000000000001
aF204.512
aF204.97
aF205.14099999999999
aF205.18899999999999
aF205.202
aF205.65700000000001
aF205.72999999999999
aF205.84399999999999
aF205.934
aF206.00700000000001
aF206.66999999999999
aF207.00299999999999
aF207.029
aF207.142
aF207.47900000000001
aF207.512
aF207.547
aF207.55000000000001
aF207.60499999999999
aF207.608
aF207.62
aF207.636
aF207.70599999999999
aF207.90199999999999
aF208.08600000000001
aF208.124
aF208.31800000000001
aF208.446
aF208.458
aF208.566
aF208.66800000000001
aF208.67400000000001
aF208.67699999999999
aF209.298
aF209.72200000000001
aF209.72999999999999
aF209.73099999999999
aF209.80199999999999
aF209.83199999999999
aF209.88300000000001
aF210.50399999999999
aF210.578
aF210.74199999999999
aF210.846
aF210.846
aF211.036
aF211.11199999999999
aF211.13999999999999
aF211.45400000000001
aF211.46000000000001
aF211.47200000000001
aF212.268
aF212.417
aF212.583
aF212.60599999999999
aF212.62
aF212.94300000000001
aF212.97499999999999
aF213.267
aF213.29499999999999
aF213.38300000000001
aF213.41800000000001
aF213.41800000000001
aF213.50999999999999
aF213.584
aF213.58600000000001
aF213.74199999999999
aF213.84999999999999
aF214.54900000000001
aF215.10499999999999
aF215.40899999999999
aF215.411
aF215.91200000000001
aF215.92400000000001
aF216.13
aF216.334
aF216.34399999999999
aF216.50399999999999
aF216.547
aF216.68199999999999
aF216.78200000000001
aF216.88800000000001
aF217.964
aF217.98400000000001
aF218.0
aF218.00399999999999
aF218.00700000000001
aF218.19
aF218.249
aF219.27500000000001
aF219.43199999999999
aF219.47399999999999
aF219.959
aF219.96700000000001
aF220.435
aF220.43700000000001
aF220.696
aF220.81899999999999
aF220.93700000000001
aF221.05699999999999
aF221.10499999999999
aF221.11799999999999
aF221.15100000000001
aF221.15700000000001
aF221.166
aF221.239
aF221.77799999999999
aF222.018
aF222.03399999999999
aF222.19
aF222.191
aF222.31899999999999
aF222.43000000000001
aF222.601
aF222.60300000000001
aF223.08000000000001
aF223.267
aF223.34800000000001
aF223.358
aF223.36799999999999
aF223.417
aF223.904
aF224.27199999999999
aF224.316
aF224.36799999999999
aF224.38399999999999
aF224.40799999999999
aF224.68000000000001
aF224.68100000000001
aF224.727
aF224.90000000000001
aF225.09700000000001
aF225.09800000000001
aF225.27799999999999
aF225.29900000000001
aF225.43799999999999
aF225.45500000000001
aF225.84399999999999
aF225.98500000000001
aF226.392
aF226.541
aF226.57400000000001
aF226.697
aF226.81
aF226.88200000000001
aF226.94999999999999
aF226.96100000000001
aF227.25800000000001
aF227.417
aF227.48400000000001
aF227.81899999999999
aF227.84899999999999
aF228.10499999999999
aF228.279
aF228.28800000000001
aF228.34200000000001
aF228.82599999999999
aF228.946
aF228.953
aF229.03899999999999
aF229.05799999999999
aF229.066
aF229.13900000000001
aF229.28800000000001
aF229.636
aF229.672
aF229.82300000000001
aF229.83500000000001
aF229.91999999999999
aF230.19200000000001
aF230.46799999999999
aF230.46799999999999
aF230.51400000000001
aF230.69800000000001
aF230.69999999999999
aF230.83500000000001
aF231.00999999999999
aF231.06899999999999
aF231.23699999999999
aF231.32599999999999
aF231.33199999999999
aF231.541
aF232.06200000000001
aF232.392
aF232.58199999999999
aF232.767
aF233.178
aF233.18899999999999
aF233.48699999999999
aF234.108
aF234.23599999999999
aF234.24799999999999
aF234.25299999999999
aF234.30000000000001
aF234.37799999999999
aF234.70400000000001
aF235.04300000000001
aF235.071
aF235.50399999999999
aF235.583
aF235.61000000000001
aF235.619
aF235.624
aF235.797
aF235.85400000000001
aF235.88300000000001
aF236.155
aF236.38
aF236.38499999999999
aF236.77600000000001
aF236.78
aF236.82400000000001
aF236.90899999999999
aF236.97200000000001
aF237.29400000000001
aF237.49199999999999
aF237.60599999999999
aF237.655
aF237.67500000000001
aF237.678
aF237.75800000000001
aF237.99799999999999
aF238.01599999999999
aF238.297
aF238.37200000000001
aF238.80600000000001
aF238.82400000000001
aF239.13900000000001
aF239.161
aF239.161
aF239.44399999999999
aF239.459
aF239.465
aF239.471
aF239.55500000000001
aF239.56999999999999
aF239.84
aF240.08699999999999
aF240.69800000000001
aF240.803
aF240.983
aF240.99000000000001
aF241.351
aF241.405
aF241.40700000000001
aF241.72300000000001
aF241.816
aF242.28100000000001
aF242.38200000000001
aF242.41399999999999
aF242.506
aF242.535
aF242.584
aF242.91999999999999
aF242.95099999999999
aF243.17500000000001
aF243.178
aF243.286
aF243.49799999999999
aF243.52000000000001
aF243.631
aF243.94200000000001
aF244.096
aF244.16200000000001
aF244.358
aF244.364
aF245.11000000000001
aF245.16300000000001
aF245.16999999999999
aF245.27000000000001
aF245.27500000000001
aF245.422
aF245.577
aF245.61000000000001
aF245.619
aF245.78200000000001
aF246.631
aF246.71799999999999
aF246.84299999999999
aF246.97499999999999
aF247.02799999999999
aF247.09
aF247.09999999999999
aF247.24199999999999
aF247.81999999999999
aF248.12799999999999
aF248.18600000000001
aF248.333
aF248.43899999999999
aF248.488
aF248.68100000000001
aF248.88
aF248.983
aF248.99700000000001
aF249.40199999999999
aF249.51300000000001
aF249.55000000000001
aF249.72
aF249.74100000000001
aF249.83699999999999
aF250.31299999999999
aF250.31800000000001
aF250.58099999999999
aF251.22399999999999
aF251.24600000000001
aF251.40299999999999
aF251.42400000000001
aF251.494
aF251.77699999999999
aF251.86699999999999
aF251.87
aF251.959
aF251.96700000000001
aF252.15000000000001
aF252.24000000000001
aF252.25899999999999
aF252.619
aF252.75999999999999
aF253.05099999999999
aF253.15000000000001
aF253.22999999999999
aF253.50200000000001
aF253.50800000000001
aF253.55000000000001
aF253.624
aF253.67400000000001
aF253.69200000000001
aF253.98400000000001
aF254.102
aF254.12299999999999
aF254.36799999999999
aF254.68899999999999
aF254.73099999999999
aF254.97800000000001
aF255.011
aF255.40299999999999
aF255.41
aF255.411
aF255.458
aF255.47399999999999
aF255.476
aF255.523
aF255.61000000000001
aF255.624
aF255.73599999999999
aF255.76599999999999
aF255.97999999999999
aF256.00400000000002
aF256.11000000000001
aF256.11099999999999
aF256.19600000000003
aF256.53399999999999
aF257.32900000000001
aF257.392
aF257.68700000000001
aF257.68799999999999
aF257.77999999999997
aF257.81599999999997
aF257.822
aF257.96699999999998
aF257.98000000000002
aF258.04899999999998
aF258.12
aF258.13
aF258.30200000000002
aF258.363
aF258.39999999999998
aF258.55399999999997
aF258.608
aF258.61599999999999
aF258.714
aF259.16199999999998
aF259.34800000000001
aF260.00400000000002
aF260.13200000000001
aF260.13299999999998
aF260.29000000000002
aF260.50700000000001
aF260.66300000000001
aF260.66500000000002
aF260.76499999999999
aF260.90699999999998
aF260.92700000000002
aF260.93400000000003
aF261.02699999999999
aF261.24599999999998
aF261.33999999999997
aF261.36399999999998
aF261.60899999999998
aF261.916
aF261.93900000000002
aF262.01900000000001
aF262.02199999999999
aF262.08699999999999
aF262.18299999999999
aF262.18299999999999
aF262.31200000000001
aF262.37200000000001
aF262.38200000000001
aF262.40600000000001
aF262.46899999999999
aF262.49900000000002
aF262.517
aF262.64600000000002
aF263.38999999999999
aF263.39800000000002
aF263.45600000000002
aF263.71300000000002
aF263.72500000000002
aF263.97699999999998
aF263.99099999999999
aF264.166
aF264.21800000000002
aF264.24599999999998
aF264.74599999999998
aF264.89600000000002
aF264.93200000000002
aF264.93799999999999
aF264.98700000000002
aF265.26299999999998
aF265.30099999999999
aF265.34100000000001
aF265.59699999999998
aF265.601
aF265.82600000000002
aF266.185
aF266.30799999999999
aF266.38999999999999
aF267.041
aF267.05599999999998
aF267.06099999999998
aF267.44600000000003
aF267.45600000000002
aF267.66800000000001
aF267.88499999999999
aF267.91899999999998
aF267.93000000000001
aF267.94400000000002
aF268.005
aF268.12799999999999
aF268.37599999999998
aF268.71300000000002
aF268.77999999999997
aF268.786
aF268.80599999999998
aF269.09300000000002
aF269.137
aF269.45400000000001
aF269.584
aF269.697
aF269.85700000000003
aF270.20100000000002
aF270.55799999999999
aF270.57100000000003
aF270.58100000000002
aF270.58499999999998
aF270.58800000000002
aF270.61500000000001
aF270.71199999999999
aF270.71199999999999
aF270.85700000000003
aF270.96300000000002
aF271.10700000000003
aF271.66300000000001
aF271.66800000000001
aF271.745
aF271.952
aF272.03800000000001
aF272.04300000000001
aF272.04899999999998
aF272.05200000000002
aF272.05399999999997
aF272.072
aF272.149
aF272.25599999999997
aF272.40600000000001
aF272.62299999999999
aF272.762
aF272.79599999999999
aF272.99099999999999
aF273.20600000000002
aF273.36599999999999
aF273.37200000000001
aF273.39999999999998
aF273.44799999999998
aF273.45999999999998
aF273.73599999999999
aF273.77499999999998
aF273.935
aF273.94999999999999
aF274.32999999999998
aF274.34800000000001
aF274.64800000000002
aF274.65600000000001
aF274.65800000000002
aF274.952
aF274.952
aF274.98599999999999
aF275.024
aF275.16199999999998
aF275.18799999999999
aF275.18900000000002
aF275.31799999999998
aF275.32400000000001
aF275.75400000000002
aF275.95100000000002
aF276.005
aF276.30799999999999
aF276.34899999999999
aF276.42399999999998
aF276.43400000000003
aF276.62200000000001
aF276.62400000000002
aF276.97199999999998
aF276.97500000000002
aF276.976
aF277.08699999999999
aF277.10500000000002
aF277.17399999999998
aF277.17700000000002
aF277.20800000000003
aF277.66000000000003
aF277.666
aF277.81
aF277.83999999999997
aF277.84100000000001
aF277.84199999999998
aF277.84399999999999
aF278.01600000000002
aF278.03300000000002
aF278.45800000000003
aF278.55700000000002
aF278.66899999999998
aF278.70499999999998
aF278.74000000000001
aF278.74200000000002
aF278.78399999999999
aF279.02100000000002
aF279.05900000000003
aF279.065
aF279.06900000000002
aF279.45999999999998
aF279.55000000000001
aF279.55000000000001
aF279.55099999999999
aF279.60399999999998
aF280.06299999999999
aF280.07600000000002
aF280.31799999999998
aF280.32400000000001
aF280.33600000000001
aF280.59800000000001
aF280.791
aF281.02800000000002
aF281.14999999999998
aF281.15800000000002
aF281.18200000000002
aF281.19
aF281.26299999999998
aF281.303
aF281.34500000000003
aF281.38799999999998
aF281.70400000000001
aF281.76400000000001
aF282.25599999999997
aF282.25999999999999
aF282.38099999999997
aF282.38400000000001
aF282.404
aF282.40899999999999
aF282.43599999999998
aF282.50299999999999
aF283.26499999999999
aF283.286
aF283.72399999999999
aF284.08300000000003
aF284.65199999999999
aF284.70400000000001
aF284.74400000000003
aF284.78899999999999
aF284.791
aF284.79399999999998
aF284.80799999999999
aF285.25299999999999
aF285.25299999999999
aF285.56400000000002
aF285.93400000000003
aF285.95600000000002
aF285.95600000000002
aF285.95800000000003
aF285.96600000000001
aF285.97899999999998
aF286.00200000000001
aF286.09800000000001
aF286.149
aF286.16000000000003
aF286.21800000000002
aF286.50599999999997
aF286.54500000000002
aF286.81299999999999
aF287.01600000000002
aF287.03899999999999
aF287.08499999999998
aF287.10399999999998
aF287.495
aF287.536
aF287.548
aF287.68799999999999
aF287.77600000000001
aF288.05500000000001
aF288.17200000000003
aF288.17200000000003
aF288.19
aF288.83300000000003
aF288.90199999999999
aF289.29399999999998
aF289.35199999999998
aF289.42599999999999
aF289.44600000000003
aF289.67000000000002
aF290.36399999999998
aF290.36599999999999
aF290.48000000000002
aF290.48599999999999
aF290.654
aF290.77999999999997
aF291.27800000000002
aF291.31900000000002
aF292.00999999999999
aF292.38999999999999
aF292.63299999999998
aF292.80599999999998
aF292.94799999999998
aF293.06400000000002
aF293.06799999999998
aF293.22699999999998
aF293.24000000000001
aF293.24599999999998
aF293.25200000000001
aF293.553
aF293.584
aF294.05900000000003
aF294.399
aF294.55200000000002
aF294.84300000000002
aF294.85500000000002
aF294.892
aF295.14600000000002
aF295.404
aF295.73200000000003
aF296.51100000000002
aF296.65199999999999
aF296.685
aF297.33600000000001
aF297.40800000000002
aF297.48500000000001
aF297.67200000000003
aF297.71199999999999
aF297.904
aF297.97899999999998
aF298.101
aF298.15300000000002
aF298.31200000000001
aF298.32400000000001
aF298.58100000000002
aF298.58600000000001
aF298.58699999999999
aF298.589
aF298.90199999999999
aF298.95600000000002
aF299.03899999999999
aF299.48399999999998
aF300.01100000000002
aF300.029
aF300.09699999999998
aF300.10199999999998
aF300.56200000000001
aF300.57999999999998
aF300.798
aF300.80399999999997
aF300.94999999999999
aF300.94999999999999
aF301.65600000000001
aF302.74200000000002
aF302.74900000000002
aF302.79199999999997
aF302.82400000000001
aF303.00099999999998
aF303.089
aF303.24200000000002
aF303.322
aF303.32499999999999
aF303.62400000000002
aF303.76299999999998
aF303.767
aF303.81400000000002
aF304.166
aF304.19600000000003
aF304.42500000000001
aF304.47300000000001
aF304.476
aF304.48500000000001
aF304.49900000000002
aF304.50099999999998
aF304.55599999999998
aF304.60300000000001
aF304.71899999999999
aF305.00599999999997
aF305.01600000000002
aF305.05399999999997
aF305.05700000000002
aF305.19200000000001
aF305.20499999999998
aF305.334
aF305.36399999999998
aF305.50799999999998
aF305.82299999999998
aF306.18799999999999
aF306.38900000000001
aF306.39499999999998
aF306.50299999999999
aF306.69999999999999
aF306.70800000000003
aF306.79300000000001
aF307.19200000000001
aF307.57499999999999
aF307.93200000000002
aF307.97199999999998
aF308.30500000000001
aF308.31599999999997
aF308.428
aF308.57900000000001
aF308.59300000000002
aF308.62299999999999
aF309.23200000000003
aF309.23200000000003
aF309.26799999999997
aF309.48000000000002
aF309.59100000000001
aF309.78800000000001
aF309.88099999999997
aF309.89600000000002
aF309.90100000000001
aF310.05500000000001
aF310.33199999999999
aF310.33499999999998
aF310.51400000000001
aF310.53899999999999
aF310.54300000000001
aF310.81599999999997
aF310.87099999999998
aF310.90600000000001
aF310.94799999999998
aF311.16800000000001
aF311.56099999999998
aF311.577
aF311.66199999999998
aF311.85700000000003
aF311.87200000000001
aF312.017
aF312.01999999999998
aF312.15800000000002
aF312.59399999999999
aF312.61700000000002
aF312.67200000000003
aF312.98000000000002
aF313.096
aF313.38299999999998
aF313.45100000000002
aF313.45100000000002
aF313.68799999999999
aF313.69600000000003
aF314.548
aF314.57799999999997
aF314.72399999999999
aF314.72800000000001
aF314.75400000000002
aF314.774
aF314.94600000000003
aF314.99400000000003
aF315.13400000000001
aF315.27999999999997
aF315.41699999999997
aF315.41800000000001
aF315.762
aF315.81400000000002
aF315.87
aF315.88900000000001
aF315.89699999999999
aF316.00599999999997
aF316.01100000000002
aF316.26999999999998
aF316.28399999999999
aF316.41399999999999
aF316.43900000000002
aF316.60399999999998
aF316.60500000000002
aF316.70999999999998
aF316.74099999999999
aF316.74099999999999
aF316.93099999999998
aF316.93200000000002
aF317.13200000000001
aF317.45600000000002
aF317.47699999999998
aF317.58800000000002
aF317.58999999999997
aF317.82799999999997
aF317.83800000000002
aF317.89400000000001
aF317.91500000000002
aF317.91800000000001
aF317.92000000000002
aF317.95699999999999
aF318.18200000000002
aF318.26499999999999
aF318.53399999999999
aF318.93599999999998
aF319.125
aF319.45400000000001
aF319.45400000000001
aF319.51999999999998
aF319.80599999999998
aF319.92000000000002
aF320.12400000000002
aF320.142
aF320.142
aF320.209
aF320.33100000000002
aF320.56799999999998
aF320.76999999999998
aF320.94900000000001
aF321.21100000000001
aF321.303
aF321.423
aF321.51999999999998
aF321.572
aF321.88999999999999
aF321.89800000000002
aF322.33300000000003
aF322.33699999999999
aF322.87799999999999
aF323.24299999999999
aF323.56200000000001
aF323.63200000000001
aF323.81700000000001
aF323.87
aF324.16500000000002
aF324.25999999999999
aF324.279
aF324.35599999999999
aF324.40699999999998
aF324.46600000000001
aF324.62
aF324.64400000000001
aF325.02100000000002
aF325.12799999999999
aF325.137
aF325.262
aF325.27300000000002
aF325.34899999999999
aF325.44299999999998
aF325.47899999999998
aF325.48599999999999
aF325.67000000000002
aF325.923
aF326.15199999999999
aF326.29000000000002
aF326.30599999999998
aF326.30900000000003
aF326.43700000000001
aF326.88200000000001
aF326.97000000000003
aF327.12599999999998
aF327.399
aF327.61000000000001
aF327.68400000000003
aF327.86000000000001
aF327.97399999999999
aF327.976
aF328.44600000000003
aF328.64600000000002
aF328.65300000000002
aF329.005
aF329.00900000000001
aF329.02600000000001
aF329.22800000000001
aF329.32100000000003
aF329.34899999999999
aF329.35199999999998
aF329.41899999999998
aF329.43900000000002
aF329.58300000000003
aF329.60199999999998
aF329.67599999999999
aF329.78399999999999
aF329.97399999999999
aF330.05799999999999
aF330.06200000000001
aF330.16000000000003
aF330.226
aF330.22699999999998
aF330.286
aF330.36900000000003
aF330.423
aF330.60000000000002
aF330.60700000000003
aF331.07799999999997
aF331.154
aF331.19
aF331.27100000000002
aF331.29700000000003
aF331.33100000000002
aF331.40600000000001
aF331.54399999999998
aF331.61900000000003
aF331.66399999999999
aF331.68000000000001
aF331.74400000000003
aF332.06099999999998
aF332.06299999999999
aF332.24000000000001
aF333.08800000000002
aF333.24099999999999
aF333.51900000000001
aF333.85599999999999
aF333.91399999999999
aF333.92399999999998
aF333.98200000000003
aF334.11900000000003
aF334.28399999999999
aF334.42599999999999
aF334.44
aF334.66500000000002
aF335.39100000000002
aF335.46100000000001
aF335.51100000000002
aF335.584
aF335.58800000000002
aF335.68799999999999
aF335.96600000000001
aF336.22000000000003
aF336.262
aF336.32100000000003
aF336.36099999999999
aF336.87900000000002
aF336.89800000000002
aF337.01400000000001
aF337.12200000000001
aF337.12400000000002
aF337.30799999999999
aF337.31799999999998
aF337.31900000000002
aF337.34199999999998
aF337.39600000000002
aF337.512
aF337.52100000000002
aF337.74799999999999
aF337.82499999999999
aF337.83300000000003
aF337.86399999999998
aF338.00999999999999
aF338.375
aF338.65199999999999
aF338.94799999999998
aF339.065
aF339.06700000000001
aF339.39999999999998
aF339.40199999999999
aF339.59100000000001
aF339.697
aF339.702
aF339.77600000000001
aF339.94999999999999
aF340.291
aF340.39100000000002
aF340.435
aF340.524
aF340.529
aF341.14400000000001
aF341.15199999999999
aF341.459
aF341.49700000000001
aF341.67899999999997
aF341.77100000000002
aF341.77499999999998
aF341.80000000000001
aF341.80900000000003
aF341.86399999999998
aF341.89800000000002
aF342.07799999999997
aF342.58800000000002
aF342.74599999999998
aF343.21300000000002
aF343.22199999999998
aF343.71600000000001
aF344.065
aF344.34199999999998
aF344.34399999999999
aF344.387
aF344.43599999999998
aF344.90300000000002
aF345.44499999999999
aF345.88299999999998
aF346.0
aF346.03399999999999
aF346.041
aF346.24200000000002
aF346.28100000000001
aF346.49000000000001
aF346.49400000000003
aF346.85700000000003
aF347.10599999999999
aF347.15600000000001
aF347.15800000000002
aF347.60599999999999
aF347.77199999999999
aF348.13999999999999
aF348.31799999999998
aF348.33100000000002
aF348.53500000000003
aF348.78199999999998
aF348.91899999999998
aF349.06900000000002
aF349.08800000000002
aF349.30000000000001
aF349.36000000000001
aF349.37200000000001
aF349.88
aF349.88799999999998
aF350.517
aF350.517
aF350.57400000000001
aF350.601
aF350.63600000000002
aF350.786
aF350.79700000000003
aF351.048
aF351.05700000000002
aF351.09899999999999
aF351.20499999999998
aF351.25200000000001
aF351.26600000000002
aF351.279
aF351.27999999999997
aF351.291
aF351.39800000000002
aF351.40100000000001
aF351.61599999999999
aF351.976
aF352.029
aF352.036
aF352.10300000000001
aF352.12299999999999
aF352.36000000000001
aF352.399
aF352.702
aF352.81599999999997
aF352.81799999999998
aF353.14400000000001
aF353.14400000000001
aF353.21100000000001
aF353.952
aF354.41800000000001
aF354.47300000000001
aF354.47800000000001
aF354.536
aF354.56400000000002
aF354.61099999999999
aF354.62
aF354.69799999999998
aF354.93799999999999
aF354.94200000000001
aF355.02999999999997
aF355.09399999999999
aF355.101
aF355.13600000000002
aF355.17000000000002
aF355.25400000000002
aF355.38200000000001
aF355.51999999999998
aF355.745
aF355.75599999999997
aF356.20499999999998
aF356.25
aF356.27999999999997
aF356.48700000000002
aF356.50900000000001
aF356.61399999999998
aF356.71600000000001
aF356.72300000000001
aF356.93200000000002
aF357.464
aF357.50400000000002
aF357.92500000000001
aF358.05599999999998
aF358.20299999999997
aF358.209
aF358.21600000000001
aF358.346
aF358.392
aF358.50400000000002
aF358.51600000000002
aF358.613
aF358.697
aF358.82400000000001
aF358.87700000000001
aF358.88400000000001
aF358.93900000000002
aF359.07400000000001
aF359.39800000000002
aF359.52600000000001
aF359.52999999999997
aF359.52999999999997
aF359.77600000000001
aF359.78800000000001
aF359.84500000000003
aF359.93400000000003
aF359.94499999999999
aF360.16500000000002
aF360.36000000000001
aF360.57299999999998
aF360.68299999999999
aF360.75599999999997
aF360.75799999999998
aF360.85199999999998
aF361.27100000000002
aF361.29399999999998
aF361.73000000000002
aF361.86700000000002
aF361.89299999999997
aF362.00799999999998
aF362.08600000000001
aF362.09100000000001
aF362.24700000000001
aF362.255
aF362.33600000000001
aF362.36399999999998
aF362.649
aF362.70499999999998
aF362.70800000000003
aF362.70999999999998
aF362.71600000000001
aF362.72399999999999
aF362.76999999999998
aF362.78500000000003
aF362.81299999999999
aF363.19499999999999
aF363.351
aF363.483
aF363.49799999999999
aF363.67200000000003
aF363.73500000000001
aF363.93000000000001
aF363.971
aF363.971
aF364.27600000000001
aF364.28800000000001
aF364.29000000000002
aF364.29199999999997
aF364.35500000000002
aF364.36799999999999
aF364.702
aF364.83300000000003
aF364.90699999999998
aF364.93099999999998
aF365.03399999999999
aF365.07600000000002
aF365.32600000000002
aF365.35599999999999
aF365.74900000000002
aF366.00400000000002
aF366.01100000000002
aF366.072
aF366.08800000000002
aF366.15600000000001
aF366.25999999999999
aF366.32999999999998
aF366.73700000000002
aF366.81799999999998
aF366.81799999999998
aF366.98200000000003
aF367.05700000000002
aF367.06900000000002
aF367.06999999999999
aF367.09800000000001
aF367.50099999999998
aF367.505
aF367.53399999999999
aF367.62599999999998
aF368.03800000000001
aF368.08300000000003
aF368.08699999999999
aF368.452
aF368.61599999999999
aF368.62400000000002
aF368.69600000000003
aF368.80500000000001
aF369.024
aF369.108
aF369.40899999999999
aF369.52499999999998
aF369.72800000000001
aF370.065
aF370.08300000000003
aF370.27199999999999
aF370.41199999999998
aF370.61000000000001
aF370.86000000000001
aF370.97699999999998
aF370.98000000000002
aF370.98000000000002
aF371.23399999999998
aF371.536
aF371.77800000000002
aF371.80599999999998
aF371.85500000000002
aF371.892
aF372.315
aF372.32100000000003
aF372.45299999999997
aF372.49200000000002
aF372.74799999999999
aF373.04599999999999
aF373.05700000000002
aF373.358
aF373.38900000000001
aF373.76400000000001
aF373.91800000000001
aF373.95600000000002
aF374.084
aF374.12299999999999
aF374.18900000000002
aF374.47199999999998
aF374.47800000000001
aF374.50200000000001
aF374.51600000000002
aF374.58499999999998
aF374.77800000000002
aF374.95800000000003
aF375.072
aF375.07499999999999
aF375.428
aF375.428
aF375.56999999999999
aF375.60599999999999
aF375.661
aF375.88600000000002
aF375.92599999999999
aF376.04199999999997
aF376.19799999999998
aF376.43200000000002
aF376.52600000000001
aF376.53899999999999
aF376.61200000000002
aF376.726
aF376.786
aF376.79300000000001
aF376.85399999999998
aF377.012
aF377.01799999999997
aF377.16800000000001
aF377.23899999999998
aF377.26400000000001
aF377.31599999999997
aF377.50400000000002
aF377.70299999999997
aF377.73599999999999
aF378.00799999999998
aF378.04000000000002
aF378.476
aF378.637
aF378.65800000000002
aF378.67200000000003
aF379.07999999999998
aF379.08300000000003
aF379.18599999999998
aF379.233
aF379.42599999999999
aF379.67099999999999
aF379.69900000000001
aF379.702
aF379.709
aF379.73200000000003
aF379.75599999999997
aF379.77600000000001
aF379.78100000000001
aF379.87700000000001
aF379.88400000000001
aF380.387
aF380.40100000000001
aF380.476
aF380.48899999999998
aF380.69400000000002
aF381.12400000000002
aF381.24200000000002
aF381.60899999999998
aF381.72699999999998
aF381.815
aF381.892
aF381.899
aF381.95699999999999
aF382.01299999999998
aF382.14800000000002
aF382.678
aF382.762
aF382.84899999999999
aF382.85399999999998
aF383.15100000000001
aF383.27999999999997
aF383.37799999999999
aF383.50099999999998
aF383.50999999999999
aF383.87200000000001
aF384.06599999999997
aF384.07400000000001
aF384.19999999999999
aF384.20400000000001
aF384.43200000000002
aF384.43700000000001
aF384.45600000000002
aF384.49400000000003
aF384.83100000000002
aF384.94600000000003
aF385.18599999999998
aF385.262
aF385.50999999999999
aF385.60599999999999
aF385.60700000000003
aF385.69600000000003
aF385.70400000000001
aF385.755
aF385.916
aF385.92500000000001
aF386.07499999999999
aF386.13400000000001
aF386.28399999999999
aF386.29199999999997
aF386.30500000000001
aF386.53199999999998
aF386.56900000000002
aF386.572
aF386.63200000000001
aF386.649
aF386.65300000000002
aF386.68000000000001
aF386.68900000000002
aF386.86000000000001
aF386.98700000000002
aF387.28399999999999
aF387.286
aF387.66500000000002
aF387.71499999999997
aF387.85000000000002
aF387.91300000000001
aF388.02699999999999
aF388.54399999999998
aF388.73599999999999
aF389.02199999999999
aF389.24099999999999
aF389.30900000000003
aF389.30900000000003
aF389.32900000000001
aF389.334
aF389.49799999999999
aF389.59399999999999
aF389.73099999999999
aF389.75200000000001
aF389.95600000000002
aF390.10000000000002
aF390.15699999999998
aF390.23000000000002
aF390.245
aF390.84899999999999
aF390.98000000000002
aF391.05399999999997
aF391.06200000000001
aF391.065
aF391.34399999999999
aF391.51900000000001
aF391.53399999999999
aF391.56599999999997
aF391.61799999999999
aF391.63299999999998
aF391.65199999999999
aF392.53699999999998
aF392.68799999999999
aF392.81599999999997
aF392.81799999999998
aF392.97000000000003
aF392.99200000000002
aF393.774
aF393.91800000000001
aF394.05399999999997
aF394.09899999999999
aF394.23599999999999
aF394.27600000000001
aF394.34399999999999
aF394.34899999999999
aF394.399
aF394.40300000000002
aF394.49099999999999
aF394.50599999999997
aF394.58199999999999
aF394.613
aF394.73599999999999
aF394.80599999999998
aF394.988
aF394.99200000000002
aF395.14999999999998
aF395.50700000000001
aF395.56900000000002
aF395.61799999999999
aF395.72399999999999
aF395.74700000000001
aF395.76499999999999
aF395.82100000000003
aF395.84800000000001
aF395.85000000000002
aF395.887
aF395.93400000000003
aF396.12599999999998
aF396.54399999999998
aF396.68400000000003
aF396.726
aF396.95400000000001
aF397.00099999999998
aF397.214
aF397.62400000000002
aF397.95999999999998
aF398.11599999999999
aF398.24299999999999
aF398.38999999999999
aF398.44600000000003
aF398.447
aF398.45999999999998
aF398.45999999999998
aF398.51299999999998
aF398.565
aF398.67399999999998
aF398.76900000000001
aF398.78399999999999
aF398.964
aF399.31099999999998
aF399.56799999999998
aF399.86200000000002
aF400.02499999999998
aF400.22899999999998
aF400.33999999999997
aF400.49200000000002
aF400.517
aF400.589
aF400.80900000000003
aF400.875
aF401.04300000000001
aF401.31
aF401.32299999999998
aF401.32400000000001
aF401.43799999999999
aF401.47399999999999
aF401.73599999999999
aF401.738
aF401.86200000000002
aF401.86500000000001
aF401.91300000000001
aF401.952
aF401.99700000000001
aF402.41199999999998
aF402.63799999999998
aF402.995
aF403.05200000000002
aF403.06
aF403.06099999999998
aF403.06400000000002
aF403.08999999999997
aF403.26900000000001
aF403.34399999999999
aF403.35300000000001
aF403.42200000000003
aF403.50799999999998
aF404.10700000000003
aF404.11500000000001
aF404.15100000000001
aF404.16300000000001
aF404.49700000000001
aF404.62400000000002
aF404.892
aF404.91800000000001
aF405.07999999999998
aF405.11000000000001
aF405.12099999999998
aF405.14800000000002
aF405.339
aF405.39499999999998
aF405.73500000000001
aF405.88099999999997
aF406.20100000000002
aF406.37799999999999
aF406.70400000000001
aF406.77199999999999
aF406.81099999999998
aF406.81200000000001
aF407.24200000000002
aF407.35700000000003
aF407.38799999999998
aF407.39299999999997
aF407.53699999999998
aF407.58800000000002
aF407.75799999999998
aF407.88
aF408.03899999999999
aF408.05399999999997
aF408.09199999999998
aF408.18099999999998
aF408.245
aF408.27100000000002
aF408.29399999999998
aF408.42399999999998
aF408.44400000000002
aF408.46499999999997
aF408.48200000000003
aF408.63200000000001
aF408.95499999999998
aF408.99000000000001
aF409.38299999999998
aF409.41399999999999
aF409.49599999999998
aF410.00599999999997
aF410.07400000000001
aF410.08100000000002
aF410.28100000000001
aF410.30700000000002
aF410.32600000000002
aF410.40499999999997
aF410.43200000000002
aF410.63900000000001
aF410.85700000000003
aF410.99599999999998
aF410.99700000000001
aF411.06200000000001
aF411.23399999999998
aF411.27600000000001
aF411.29300000000001
aF411.30900000000003
aF411.32299999999998
aF411.55599999999998
aF411.57999999999998
aF411.73700000000002
aF411.78100000000001
aF411.83199999999999
aF411.98899999999998
aF412.08600000000001
aF412.09699999999998
aF412.50799999999998
aF412.60199999999998
aF412.72500000000002
aF412.72800000000001
aF412.82400000000001
aF412.92500000000001
aF412.93599999999998
aF413.01999999999998
aF413.13
aF413.178
aF413.18000000000001
aF413.36799999999999
aF413.697
aF413.69799999999998
aF413.88
aF413.99700000000001
aF414.113
aF414.26799999999997
aF414.29000000000002
aF414.31700000000001
aF414.32299999999998
aF414.47199999999998
aF414.49400000000003
aF414.798
aF414.98700000000002
aF414.99299999999999
aF415.29399999999998
aF415.81599999999997
aF415.92200000000003
aF415.94200000000001
aF416.05500000000001
aF416.05799999999999
aF416.101
aF416.27800000000002
aF416.41199999999998
aF416.47300000000001
aF416.536
aF416.56400000000002
aF416.65100000000001
aF416.851
aF416.90899999999999
aF416.95100000000002
aF416.95100000000002
aF416.97500000000002
aF417.11000000000001
aF417.15300000000002
aF417.36599999999999
aF417.375
aF417.39499999999998
aF417.39699999999999
aF417.40800000000002
aF417.702
aF417.71300000000002
aF417.80000000000001
aF417.952
aF418.02100000000002
aF418.14100000000002
aF418.18400000000003
aF418.19
aF418.24799999999999
aF418.50299999999999
aF418.62
aF418.95499999999998
aF418.99400000000003
aF419.07600000000002
aF419.08699999999999
aF419.08999999999997
aF419.25799999999998
aF419.42399999999998
aF419.53300000000002
aF419.89800000000002
aF420.14600000000002
aF420.40499999999997
aF420.411
aF420.411
aF420.46600000000001
aF420.46800000000002
aF420.47000000000003
aF420.47500000000002
aF420.65600000000001
aF420.68000000000001
aF420.70800000000003
aF421.00799999999998
aF421.00799999999998
aF421.24200000000002
aF421.25
aF421.33699999999999
aF421.363
aF421.43599999999998
aF421.43799999999999
aF421.56599999999997
aF421.60000000000002
aF421.98700000000002
aF421.988
aF422.13200000000001
aF422.22000000000003
aF422.23899999999998
aF422.464
aF422.46499999999997
aF422.60000000000002
aF422.70299999999997
aF422.72500000000002
aF423.17599999999999
aF423.31599999999997
aF423.84800000000001
aF423.86399999999998
aF424.03300000000002
aF424.036
aF424.185
aF424.24000000000001
aF424.262
aF424.274
aF424.298
aF424.29899999999998
aF424.30200000000002
aF424.30700000000002
aF424.30799999999999
aF424.39600000000002
aF424.416
aF424.428
aF424.43599999999998
aF424.476
aF424.51900000000001
aF424.69499999999999
aF424.70100000000002
aF424.86900000000003
aF424.904
aF425.04399999999998
aF425.09800000000001
aF425.30900000000003
aF425.46100000000001
aF425.47000000000003
aF425.64600000000002
aF425.65600000000001
aF425.72300000000001
aF425.738
aF425.74000000000001
aF426.12900000000002
aF426.23399999999998
aF426.24200000000002
aF426.36900000000003
aF426.41000000000003
aF426.69999999999999
aF426.928
aF427.10700000000003
aF427.11200000000002
aF427.33800000000002
aF427.35899999999998
aF427.387
aF427.387
aF427.45100000000002
aF427.65600000000001
aF427.661
aF427.774
aF427.80700000000002
aF427.83999999999997
aF427.84699999999998
aF428.18599999999998
aF428.39400000000001
aF428.66800000000001
aF428.80799999999999
aF429.01799999999997
aF429.14800000000002
aF429.22199999999998
aF429.298
aF429.29899999999998
aF429.32499999999999
aF429.35599999999999
aF429.423
aF429.584
aF429.59399999999999
aF429.66699999999997
aF429.67099999999999
aF429.69499999999999
aF429.84699999999998
aF430.01999999999998
aF430.13099999999997
aF430.85700000000003
aF431.12700000000001
aF431.54399999999998
aF431.55000000000001
aF431.75200000000001
aF432.05500000000001
aF432.185
aF432.27600000000001
aF432.38099999999997
aF432.38400000000001
aF432.66899999999998
aF432.67200000000003
aF432.815
aF432.94099999999997
aF432.99700000000001
aF433.02199999999999
aF433.125
aF433.16199999999998
aF433.19999999999999
aF433.32600000000002
aF433.68799999999999
aF433.70299999999997
aF433.75
aF433.86599999999999
aF434.214
aF434.36500000000001
aF434.565
aF434.721
aF434.83499999999998
aF434.96800000000002
aF435.08600000000001
aF435.11500000000001
aF435.291
aF435.29399999999998
aF435.35399999999998
aF435.44
aF435.55599999999998
aF435.57499999999999
aF435.60700000000003
aF435.608
aF435.61399999999998
aF435.61500000000001
aF435.654
aF435.702
aF435.72199999999998
aF436.036
aF436.04599999999999
aF436.346
aF436.34800000000001
aF436.61799999999999
aF436.63
aF436.72399999999999
aF436.73599999999999
aF436.803
aF436.82100000000003
aF436.92599999999999
aF437.041
aF437.65199999999999
aF437.70999999999998
aF437.77199999999999
aF438.07600000000002
aF438.13299999999998
aF438.13600000000002
aF438.15300000000002
aF438.52199999999999
aF438.67099999999999
aF438.762
aF438.81099999999998
aF438.90300000000002
aF439.00200000000001
aF439.02100000000002
aF439.14800000000002
aF439.14800000000002
aF439.19400000000002
aF439.197
aF439.33699999999999
aF439.56
aF439.56900000000002
aF439.63799999999998
aF440.185
aF440.26600000000002
aF440.39100000000002
aF440.39299999999997
aF440.64800000000002
aF440.786
aF440.822
aF440.82799999999997
aF440.88999999999999
aF440.88999999999999
aF441.18400000000003
aF441.315
aF441.322
aF441.34399999999999
aF441.35199999999998
aF441.50999999999999
aF441.54500000000002
aF441.56599999999997
aF441.58199999999999
aF441.81999999999999
aF441.89400000000001
aF441.904
aF442.26400000000001
aF442.30799999999999
aF442.40199999999999
aF442.40800000000002
aF442.43700000000001
aF442.57299999999998
aF442.69
aF442.69200000000001
aF442.78300000000002
aF443.096
aF443.10300000000001
aF443.11500000000001
aF443.221
aF443.60399999999998
aF443.67200000000003
aF443.67599999999999
aF443.84800000000001
aF443.84800000000001
aF443.88200000000001
aF443.89400000000001
aF444.03899999999999
aF444.05200000000002
aF444.21899999999999
aF444.75900000000001
aF444.76999999999998
aF444.90699999999998
aF444.91000000000003
aF444.91800000000001
aF444.93400000000003
aF445.20400000000001
aF445.42200000000003
aF445.64299999999997
aF445.77199999999999
aF446.08800000000002
aF446.089
aF446.226
aF446.27499999999998
aF446.36200000000002
aF446.52100000000002
aF446.52600000000001
aF446.53399999999999
aF446.56900000000002
aF446.702
aF446.72500000000002
aF446.72800000000001
aF446.76900000000001
aF447.28899999999999
aF447.34800000000001
aF447.58999999999997
aF447.92599999999999
aF447.97199999999998
aF448.08999999999997
aF448.29700000000003
aF448.298
aF448.303
aF448.49200000000002
aF448.49400000000003
aF448.959
aF449.14100000000002
aF449.14299999999997
aF449.65800000000002
aF450.012
aF450.02999999999997
aF450.036
aF450.34399999999999
aF450.346
aF450.90100000000001
aF450.91800000000001
aF451.471
aF451.60300000000001
aF451.60500000000002
aF451.85199999999998
aF451.85199999999998
aF452.13
aF452.279
aF452.38
aF452.38400000000001
aF452.983
aF452.99200000000002
aF453.07499999999999
aF453.084
aF454.18700000000001
aF454.21199999999999
aF454.29399999999998
aF454.41899999999998
aF454.44200000000001
aF454.48399999999998
aF454.85000000000002
aF454.91899999999998
aF455.19799999999998
aF455.26799999999997
aF455.40899999999999
aF455.47399999999999
aF455.75700000000001
aF456.71499999999997
aF456.72300000000001
aF456.74099999999999
aF456.87900000000002
aF457.27999999999997
aF457.39100000000002
aF457.40199999999999
aF457.46100000000001
aF457.46899999999999
aF457.48899999999998
aF457.48899999999998
aF457.495
aF457.66699999999997
aF457.911
aF458.12200000000001
aF458.12200000000001
aF458.40899999999999
aF458.41000000000003
aF458.49700000000001
aF458.58100000000002
aF458.81400000000002
aF458.87
aF458.87900000000002
aF458.92700000000002
aF459.10700000000003
aF459.11799999999999
aF459.15300000000002
aF459.77499999999998
aF459.83499999999998
aF459.84100000000001
aF460.04700000000003
aF460.07400000000001
aF460.07799999999997
aF460.09199999999998
aF460.166
aF460.50200000000001
aF460.976
aF460.98000000000002
aF460.98700000000002
aF461.363
aF461.471
aF461.476
aF461.65199999999999
aF461.66699999999997
aF461.798
aF462.35700000000003
aF462.52199999999999
aF462.57999999999998
aF462.58999999999997
aF462.60000000000002
aF462.61599999999999
aF463.56200000000001
aF463.577
aF463.70999999999998
aF463.86599999999999
aF463.87799999999999
aF463.89800000000002
aF463.96600000000001
aF464.35300000000001
aF464.58100000000002
aF464.738
aF464.762
aF464.89400000000001
aF464.89800000000002
aF465.06299999999999
aF465.52199999999999
aF465.57100000000003
aF465.91300000000001
aF466.286
aF466.89400000000001
aF466.89400000000001
aF466.91899999999998
aF466.952
aF466.952
aF467.09199999999998
aF467.09800000000001
aF467.23599999999999
aF467.35899999999998
aF467.38600000000002
aF467.99400000000003
aF468.26600000000002
aF468.42700000000002
aF468.553
aF468.55500000000001
aF468.59800000000001
aF468.81999999999999
aF469.00400000000002
aF469.12400000000002
aF469.12400000000002
aF469.42399999999998
aF469.46600000000001
aF469.46699999999998
aF469.49599999999998
aF469.51299999999998
aF469.577
aF469.57900000000001
aF469.81999999999999
aF469.91300000000001
aF469.91899999999998
aF469.94900000000001
aF469.95400000000001
aF469.95600000000002
aF470.029
aF470.16800000000001
aF470.40499999999997
aF470.416
aF470.63099999999997
aF470.63400000000001
aF470.63799999999998
aF470.69999999999999
aF470.75099999999998
aF470.94
aF471.00299999999999
aF471.14699999999999
aF471.31099999999998
aF471.38200000000001
aF471.38200000000001
aF471.67200000000003
aF471.69200000000001
aF471.72199999999998
aF471.73399999999998
aF471.75599999999997
aF471.79000000000002
aF472.24200000000002
aF472.28199999999998
aF472.52300000000002
aF472.52999999999997
aF472.68400000000003
aF472.73700000000002
aF472.74799999999999
aF472.86599999999999
aF473.08800000000002
aF473.14100000000002
aF473.15600000000001
aF473.32600000000002
aF473.58800000000002
aF473.58800000000002
aF473.70800000000003
aF474.06299999999999
aF474.13499999999999
aF474.16399999999999
aF474.28199999999998
aF474.39800000000002
aF474.58699999999999
aF474.58800000000002
aF474.83499999999998
aF474.83600000000001
aF474.97500000000002
aF474.98000000000002
aF475.06400000000002
aF475.33800000000002
aF475.44400000000002
aF475.48599999999999
aF475.54199999999997
aF475.779
aF475.80099999999999
aF475.83800000000002
aF475.85199999999998
aF476.11200000000002
aF476.17500000000001
aF476.267
aF476.45999999999998
aF476.82100000000003
aF477.11099999999999
aF477.13299999999998
aF477.50099999999998
aF477.52800000000002
aF477.56099999999998
aF477.63900000000001
aF477.67099999999999
aF477.88400000000001
aF478.59199999999998
aF478.80900000000003
aF478.99799999999999
aF479.22000000000003
aF479.541
aF479.77100000000002
aF480.17200000000003
aF480.17200000000003
aF480.327
aF480.608
aF480.67700000000002
aF480.67700000000002
aF480.90499999999997
aF481.01799999999997
aF481.178
aF481.37700000000001
aF481.48200000000003
aF481.49599999999998
aF482.43299999999999
aF482.608
aF482.90199999999999
aF482.93400000000003
aF482.95600000000002
aF482.95699999999999
aF483.25200000000001
aF483.51400000000001
aF483.51900000000001
aF483.59800000000001
aF483.63999999999999
aF483.79300000000001
aF483.88799999999998
aF484.024
aF484.04399999999998
aF484.15600000000001
aF484.81
aF484.81400000000002
aF485.04899999999998
aF485.05000000000001
aF485.19600000000003
aF485.88499999999999
aF486.18599999999998
aF486.30200000000002
aF486.30599999999998
aF486.42899999999997
aF486.435
aF486.685
aF486.70699999999999
aF487.04500000000002
aF487.06099999999998
aF487.53699999999998
aF487.54000000000002
aF487.69900000000001
aF487.73700000000002
aF487.93200000000002
aF488.14600000000002
aF488.22800000000001
aF488.25799999999998
aF488.45499999999998
aF488.86700000000002
aF489.17200000000003
aF489.38
aF489.83100000000002
aF490.08800000000002
aF490.18299999999999
aF490.20600000000002
aF490.23700000000002
aF490.34500000000003
aF490.49400000000003
aF490.71600000000001
aF490.94799999999998
aF490.94900000000001
aF491.209
aF491.5
aF491.76600000000002
aF491.83800000000002
aF492.036
aF492.30500000000001
aF492.33600000000001
aF492.33600000000001
aF492.60000000000002
aF492.60500000000002
aF492.61099999999999
aF492.76999999999998
aF493.28800000000001
aF493.29199999999997
aF493.29199999999997
aF493.35000000000002
aF493.67899999999997
aF493.68700000000001
aF493.904
aF494.221
aF494.29000000000002
aF494.29199999999997
aF494.42899999999997
aF494.43200000000002
aF494.99000000000001
aF494.995
aF495.01600000000002
aF495.07100000000003
aF495.07499999999999
aF495.22800000000001
aF496.13600000000002
aF496.14499999999998
aF496.904
aF496.95299999999997
aF497.03300000000002
aF497.19400000000002
aF497.28300000000002
aF497.42500000000001
aF498.125
aF498.13499999999999
aF498.14100000000002
aF498.61399999999998
aF498.90600000000001
aF499.11900000000003
aF499.166
aF499.17000000000002
aF499.42000000000002
aF499.47399999999999
aF499.65899999999999
aF499.84800000000001
aF499.85399999999998
aF500.36500000000001
aF500.548
aF500.55000000000001
aF500.67200000000003
aF500.75599999999997
aF500.89999999999998
aF500.93799999999999
aF501.07299999999998
aF501.23000000000002
aF501.39100000000002
aF501.42599999999999
aF501.64600000000002
aF501.89699999999999
aF501.99099999999999
aF502.09399999999999
aF502.11900000000003
aF502.62
aF502.71300000000002
aF502.71800000000002
aF502.75999999999999
aF502.90800000000002
aF503.05599999999998
aF503.06400000000002
aF503.31299999999999
aF503.45100000000002
aF503.45400000000001
aF503.49400000000003
aF503.56599999999997
aF503.60000000000002
aF503.66199999999998
aF503.69200000000001
aF503.86599999999999
aF503.87400000000002
aF503.88099999999997
aF503.95699999999999
aF503.95999999999998
aF503.98700000000002
aF503.99400000000003
aF504.024
aF504.03100000000001
aF504.14999999999998
aF504.26600000000002
aF504.42500000000001
aF504.49200000000002
aF504.60399999999998
aF504.642
aF504.76600000000002
aF505.11000000000001
aF505.15899999999999
aF505.16500000000002
aF505.46800000000002
aF505.68299999999999
aF505.88200000000001
aF505.94799999999998
aF506.41000000000003
aF506.50999999999999
aF506.71899999999999
aF506.80099999999999
aF506.85399999999998
aF507.14600000000002
aF507.23000000000002
aF507.738
aF507.94400000000002
aF508.14800000000002
aF508.16800000000001
aF508.25599999999997
aF508.43099999999998
aF508.47899999999998
aF508.53800000000001
aF508.56599999999997
aF508.97699999999998
aF509.01999999999998
aF509.15899999999999
aF509.37700000000001
aF509.48899999999998
aF509.50599999999997
aF509.60700000000003
aF509.70999999999998
aF509.79199999999997
aF509.83199999999999
aF509.83600000000001
aF510.13099999999997
aF510.35199999999998
aF510.35300000000001
aF510.392
aF510.43400000000003
aF510.43799999999999
aF510.44999999999999
aF510.45400000000001
aF510.45499999999998
aF510.47899999999998
aF511.267
aF511.36200000000002
aF511.36599999999999
aF512.02200000000005
aF512.06700000000001
aF512.07299999999998
aF512.08100000000002
aF512.24199999999996
aF512.25400000000002
aF513.25300000000004
aF513.39400000000001
aF513.40599999999995
aF513.45399999999995
aF513.49599999999998
aF513.50300000000004
aF513.60299999999995
aF513.66499999999996
aF513.99199999999996
aF514.02200000000005
aF514.02700000000004
aF514.06299999999999
aF514.09799999999996
aF514.17100000000005
aF514.17700000000002
aF514.178
aF514.404
aF514.43399999999997
aF514.44000000000005
aF514.44600000000003
aF514.625
aF514.63599999999997
aF514.63999999999999
aF514.63999999999999
aF514.67200000000003
aF515.07100000000003
aF515.423
aF515.42499999999995
aF515.60000000000002
aF515.654
aF515.80600000000004
aF515.80999999999995
aF516.0
aF516.03099999999995
aF516.03099999999995
aF516.24699999999996
aF516.25
aF516.74699999999996
aF516.947
aF516.995
aF517.00800000000004
aF517.84100000000001
aF517.928
aF517.93600000000004
aF518.36300000000006
aF519.02999999999997
aF519.851
aF519.85900000000004
aF520.00800000000004
aF520.36599999999999
aF520.53399999999999
aF520.76800000000003
aF520.84799999999996
aF520.952
aF521.08600000000001
aF521.226
aF521.59900000000005
aF521.63099999999997
aF521.76800000000003
aF521.779
aF521.88599999999997
aF522.25199999999995
aF522.47799999999995
aF522.47900000000004
aF522.54399999999998
aF522.58500000000004
aF522.76900000000001
aF523.20600000000002
aF523.44299999999998
aF523.50999999999999
aF523.51599999999996
aF523.53399999999999
aF523.56700000000001
aF523.88599999999997
aF524.08100000000002
aF524.20799999999997
aF524.21500000000003
aF524.25199999999995
aF524.36699999999996
aF524.38800000000003
aF524.39999999999998
aF524.49099999999999
aF524.53300000000002
aF524.53700000000003
aF524.62599999999998
aF524.62800000000004
aF524.72799999999995
aF524.81600000000003
aF524.84400000000005
aF524.89200000000005
aF525.20500000000004
aF525.26900000000001
aF525.27700000000004
aF525.34400000000005
aF525.34699999999998
aF525.36599999999999
aF525.428
aF525.56600000000003
aF525.64800000000002
aF525.68799999999999
aF525.69000000000005
aF526.40700000000004
aF527.01499999999999
aF527.11900000000003
aF527.61599999999999
aF527.66700000000003
aF527.93299999999999
aF528.48299999999995
aF528.64800000000002
aF528.65599999999995
aF528.98099999999999
aF529.54600000000005
aF529.63800000000003
aF530.01300000000003
aF530.14200000000005
aF530.149
aF530.21699999999998
aF530.91999999999996
aF531.16200000000003
aF531.30799999999999
aF531.32000000000005
aF531.33100000000002
aF531.33299999999997
aF531.33600000000001
aF531.44600000000003
aF531.56799999999998
aF531.64800000000002
aF531.65099999999995
aF531.774
aF531.822
aF531.82399999999996
aF531.88199999999995
aF532.68799999999999
aF532.83500000000004
aF532.83799999999997
aF532.83900000000006
aF532.846
aF533.00199999999995
aF533.09400000000005
aF533.37400000000002
aF533.39999999999998
aF534.00800000000004
aF534.32799999999997
aF535.01199999999994
aF535.39499999999998
aF535.39599999999996
aF535.40800000000002
aF536.56399999999996
aF536.60400000000004
aF536.74699999999996
aF536.75300000000004
aF536.84100000000001
aF537.10900000000004
aF537.14999999999998
aF537.16600000000005
aF537.28099999999995
aF537.33100000000002
aF537.46799999999996
aF537.46799999999996
aF538.28899999999999
aF538.29999999999995
aF538.70500000000004
aF538.76499999999999
aF538.87599999999998
aF539.09699999999998
aF539.58399999999995
aF539.96000000000004
aF539.96500000000003
aF540.04600000000005
aF540.04700000000003
aF540.33399999999995
aF541.59199999999998
aF541.63199999999995
aF541.63599999999997
aF542.22199999999998
aF542.44200000000001
aF542.63499999999999
aF542.68200000000002
aF542.92899999999997
aF543.06299999999999
aF543.298
aF543.30600000000004
aF544.27700000000004
aF544.39300000000003
aF544.85299999999995
aF545.07600000000002
aF545.08699999999999
aF545.13300000000004
aF545.13800000000003
aF545.38400000000001
aF545.60400000000004
aF546.05399999999997
aF546.06299999999999
aF546.24900000000002
aF546.572
aF546.66800000000001
aF546.84400000000005
aF547.25199999999995
aF547.45699999999999
aF548.53499999999997
aF548.54100000000005
aF548.85699999999997
aF548.99000000000001
aF548.99199999999996
aF549.01300000000003
aF549.01900000000001
aF549.06200000000001
aF549.34000000000003
aF549.35799999999995
aF549.36699999999996
aF549.529
aF550.28099999999995
aF550.35599999999999
aF550.72199999999998
aF550.72799999999995
aF550.96299999999997
aF551.04899999999998
aF551.05200000000002
aF551.279
aF551.33000000000004
aF551.55600000000004
aF551.56200000000001
aF551.75199999999995
aF551.93700000000001
aF552.07000000000005
aF552.21500000000003
aF552.21900000000005
aF552.24800000000005
aF552.27700000000004
aF552.39400000000001
aF552.69899999999996
aF552.70000000000005
aF552.72500000000002
aF552.95100000000002
aF552.952
aF553.03200000000004
aF553.54899999999998
aF553.57799999999997
aF553.59500000000003
aF554.01800000000003
aF554.09799999999996
aF554.14200000000005
aF554.14800000000002
aF554.20399999999995
aF554.94899999999996
aF554.95399999999995
aF555.34000000000003
aF555.42499999999995
aF555.45399999999995
aF555.72699999999998
aF555.77800000000002
aF555.904
aF556.24599999999998
aF556.71400000000006
aF556.94500000000005
aF556.98800000000006
aF557.10000000000002
aF557.36000000000001
aF557.40999999999997
aF557.44399999999996
aF557.50099999999998
aF558.07600000000002
aF558.13199999999995
aF558.23699999999997
aF558.23800000000006
aF558.54399999999998
aF558.54600000000005
aF558.77099999999996
aF558.90599999999995
aF559.45100000000002
aF559.452
aF559.57399999999996
aF559.66200000000003
aF559.88400000000001
aF559.91700000000003
aF560.27800000000002
aF560.28099999999995
aF560.32399999999996
aF560.59799999999996
aF560.60000000000002
aF560.65899999999999
aF560.88499999999999
aF561.02599999999995
aF561.49599999999998
aF561.51800000000003
aF561.66499999999996
aF561.66499999999996
aF561.78899999999999
aF561.81200000000001
aF562.08799999999997
aF562.38699999999994
aF562.78099999999995
aF562.78599999999994
aF562.95600000000002
aF562.96000000000004
aF563.37
aF563.60799999999995
aF564.24599999999998
aF564.51599999999996
aF564.52800000000002
aF564.68899999999996
aF564.81500000000005
aF564.83000000000004
aF564.93700000000001
aF564.95000000000005
aF565.10799999999995
aF565.154
aF565.255
aF565.38
aF565.53300000000002
aF565.54100000000005
aF565.60599999999999
aF565.654
aF565.73800000000006
aF565.75
aF565.76400000000001
aF565.84199999999998
aF565.89300000000003
aF566.01999999999998
aF566.10799999999995
aF566.49199999999996
aF566.51199999999994
aF566.60299999999995
aF566.91399999999999
aF566.94500000000005
aF566.94799999999998
aF567.03700000000003
aF567.11500000000001
aF567.11599999999999
aF567.12800000000004
aF567.64800000000002
aF567.72900000000004
aF567.74199999999996
aF567.79600000000005
aF567.94399999999996
aF567.95000000000005
aF568.02200000000005
aF568.40700000000004
aF568.423
aF568.42999999999995
aF568.68399999999997
aF568.70100000000002
aF568.84799999999996
aF569.01599999999996
aF569.40200000000004
aF569.41499999999996
aF569.50099999999998
aF569.53700000000003
aF569.64200000000005
aF569.64400000000001
aF569.822
aF569.96100000000001
aF569.97299999999996
aF570.29399999999998
aF570.34000000000003
aF570.36199999999997
aF570.54899999999998
aF571.20100000000002
aF571.29499999999996
aF571.375
aF571.49599999999998
aF571.548
aF571.55499999999995
aF571.77800000000002
aF572.11400000000003
aF572.11699999999996
aF572.22699999999998
aF572.24199999999996
aF572.74599999999998
aF572.77099999999996
aF572.80700000000002
aF573.02499999999998
aF573.04999999999995
aF574.24300000000005
aF574.96400000000006
aF575.20600000000002
aF575.69000000000005
aF576.13400000000001
aF576.17700000000002
aF576.18399999999997
aF576.18399999999997
aF576.25099999999998
aF576.25599999999997
aF576.26199999999994
aF577.03200000000004
aF577.03499999999997
aF577.149
aF577.31500000000005
aF577.32000000000005
aF577.32299999999998
aF577.34100000000001
aF577.34100000000001
aF577.48900000000003
aF577.63599999999997
aF577.63699999999994
aF578.08799999999997
aF578.54300000000001
aF578.64599999999996
aF578.65099999999995
aF579.38900000000001
aF579.57799999999997
aF579.66999999999996
aF579.81100000000004
aF579.93600000000004
aF579.94399999999996
aF579.94899999999996
aF580.12800000000004
aF580.16499999999996
aF580.31799999999998
aF580.32100000000003
aF580.54700000000003
aF581.11800000000005
aF581.13199999999995
aF581.13300000000004
aF581.65599999999995
aF581.69799999999998
aF581.75099999999998
aF581.78099999999995
aF582.48599999999999
aF582.69500000000005
aF582.69899999999996
aF582.74900000000002
aF582.87400000000002
aF582.88599999999997
aF582.88699999999994
aF583.024
aF583.02999999999997
aF583.14999999999998
aF583.15700000000004
aF583.20399999999995
aF584.65999999999997
aF584.87400000000002
aF584.97199999999998
aF584.976
aF584.995
aF585.0
aF585.404
aF585.97000000000003
aF585.99199999999996
aF586.17200000000003
aF586.26199999999994
aF586.37
aF586.38800000000003
aF586.49400000000003
aF586.50999999999999
aF586.54600000000005
aF587.17700000000002
aF587.40800000000002
aF587.44000000000005
aF587.62599999999998
aF587.63099999999997
aF587.67200000000003
aF588.08100000000002
aF588.08500000000004
aF588.11599999999999
aF588.24099999999999
aF588.27300000000002
aF588.29999999999995
aF588.65599999999995
aF588.80200000000002
aF589.01599999999996
aF589.01900000000001
aF589.05799999999999
aF589.31799999999998
aF589.72799999999995
aF589.73900000000003
aF589.76900000000001
aF589.87099999999998
aF589.94500000000005
aF590.12699999999995
aF590.34799999999996
aF590.95399999999995
aF590.96100000000001
aF591.30799999999999
aF591.49400000000003
aF591.63699999999994
aF591.72500000000002
aF591.79700000000003
aF592.28399999999999
aF592.34199999999998
aF592.90200000000004
aF593.17499999999995
aF593.35599999999999
aF593.36000000000001
aF593.48599999999999
aF593.61099999999999
aF594.00999999999999
aF594.14400000000001
aF594.32100000000003
aF594.33199999999999
aF594.48000000000002
aF594.505
aF594.745
aF595.31500000000005
aF595.83699999999999
aF595.84400000000005
aF596.06700000000001
aF596.51999999999998
aF596.78499999999997
aF596.84199999999998
aF597.03200000000004
aF597.04300000000001
aF597.06899999999996
aF597.08799999999997
aF597.37599999999998
aF597.54100000000005
aF597.95500000000004
aF598.06200000000001
aF598.06600000000003
aF598.06799999999998
aF598.16499999999996
aF598.24000000000001
aF598.29600000000005
aF598.303
aF598.55200000000002
aF598.55399999999997
aF598.62300000000005
aF598.82100000000003
aF598.88599999999997
aF598.89599999999996
aF599.06600000000003
aF599.19000000000005
aF599.28899999999999
aF599.38300000000004
aF599.39200000000005
aF599.60000000000002
aF599.601
aF599.69399999999996
aF599.70000000000005
aF600.38099999999997
aF600.46900000000005
aF600.47000000000003
aF600.59500000000003
aF600.596
aF600.971
aF601.00900000000001
aF601.34799999999996
aF601.38400000000001
aF601.53899999999999
aF601.84199999999998
aF602.024
aF602.02599999999995
aF602.03200000000004
aF602.03800000000001
aF602.17399999999998
aF602.17899999999997
aF602.48800000000006
aF602.53800000000001
aF602.73900000000003
aF602.88599999999997
aF602.94399999999996
aF602.96299999999997
aF603.42100000000005
aF603.471
aF603.51400000000001
aF603.59500000000003
aF604.32100000000003
aF604.322
aF604.51400000000001
aF604.96000000000004
aF604.96600000000001
aF605.08799999999997
aF605.20000000000005
aF605.34799999999996
aF605.36400000000003
aF605.39599999999996
aF605.40300000000002
aF605.60500000000002
aF605.87900000000002
aF605.88099999999997
aF606.13599999999997
aF606.14499999999998
aF606.55399999999997
aF606.57500000000005
aF606.62300000000005
aF606.78399999999999
aF607.25
aF607.68399999999997
aF607.72500000000002
aF607.79600000000005
aF607.92200000000003
aF608.02200000000005
aF608.03999999999996
aF608.15599999999995
aF608.16800000000001
aF608.18399999999997
aF608.46699999999998
aF608.58000000000004
aF608.71900000000005
aF608.91600000000005
aF608.91600000000005
aF608.96299999999997
aF608.98400000000004
aF608.98400000000004
aF609.07299999999998
aF609.08399999999995
aF609.65700000000004
aF609.65700000000004
aF609.83900000000006
aF609.84000000000003
aF609.86000000000001
aF610.10599999999999
aF610.20899999999995
aF610.51199999999994
aF610.64400000000001
aF610.64599999999996
aF611.13499999999999
aF611.13999999999999
aF611.17499999999995
aF611.18200000000002
aF611.43700000000001
aF611.46699999999998
aF611.47199999999998
aF611.53499999999997
aF611.83199999999999
aF611.97000000000003
aF612.03399999999999
aF612.03499999999997
aF612.14599999999996
aF612.27300000000002
aF612.274
aF612.43700000000001
aF612.904
aF613.096
aF613.29100000000005
aF613.42999999999995
aF613.96600000000001
aF614.28399999999999
aF614.28700000000003
aF614.48500000000001
aF614.83299999999997
aF614.84100000000001
aF614.93100000000004
aF614.93600000000004
aF614.95600000000002
aF615.22900000000004
aF615.54399999999998
aF615.66800000000001
aF615.74400000000003
aF615.95799999999997
aF616.09000000000003
aF616.77999999999997
aF616.77999999999997
aF617.05499999999995
aF617.07899999999995
aF617.221
aF617.24400000000003
aF617.77700000000004
aF617.77999999999997
aF617.83699999999999
aF617.88300000000004
aF618.22199999999998
aF618.35299999999995
aF618.36400000000003
aF619.11699999999996
aF619.31399999999996
aF619.46600000000001
aF619.54499999999996
aF619.70000000000005
aF619.91600000000005
aF620.56600000000003
aF620.81200000000001
aF621.11300000000006
aF621.15200000000004
aF621.20100000000002
aF621.21799999999996
aF621.29300000000001
aF621.42899999999997
aF621.56500000000005
aF621.56700000000001
aF621.63199999999995
aF621.63800000000003
aF621.66499999999996
aF621.75900000000001
aF621.75999999999999
aF622.11199999999997
aF622.28700000000003
aF622.48299999999995
aF622.78999999999996
aF622.79399999999998
aF622.79999999999995
aF622.95000000000005
aF622.97799999999995
aF622.98500000000001
aF623.08600000000001
aF623.13499999999999
aF623.19799999999998
aF623.20600000000002
aF623.44000000000005
aF623.495
aF623.53399999999999
aF623.58500000000004
aF623.59500000000003
aF624.10199999999998
aF624.11400000000003
aF624.17399999999998
aF624.54600000000005
aF624.70600000000002
aF624.74699999999996
aF624.774
aF624.99699999999996
aF625.0
aF625.06600000000003
aF625.07100000000003
aF625.35500000000002
aF625.70799999999997
aF625.75999999999999
aF625.75999999999999
aF625.84400000000005
aF626.05999999999995
aF626.13599999999997
aF626.22000000000003
aF626.62400000000002
aF626.62599999999998
aF626.77099999999996
aF626.81700000000001
aF627.18100000000004
aF627.202
aF627.34900000000005
aF627.35400000000004
aF627.46600000000001
aF627.53899999999999
aF627.59199999999998
aF627.827
aF627.88900000000001
aF628.01900000000001
aF628.01999999999998
aF628.05100000000004
aF628.24300000000005
aF628.26400000000001
aF628.54899999999998
aF628.57899999999995
aF628.61699999999996
aF628.64099999999996
aF628.64200000000005
aF628.65599999999995
aF628.73199999999997
aF629.16499999999996
aF629.71799999999996
aF629.78399999999999
aF629.78499999999997
aF629.78999999999996
aF629.88099999999997
aF630.10400000000004
aF630.11699999999996
aF630.13099999999997
aF630.32399999999996
aF630.41300000000001
aF630.68700000000001
aF630.83199999999999
aF630.846
aF630.86300000000006
aF630.87699999999995
aF630.98900000000003
aF631.05999999999995
aF631.06799999999998
aF631.19100000000003
aF631.23000000000002
aF631.23699999999997
aF631.399
aF631.41600000000005
aF631.42399999999998
aF631.43399999999997
aF631.78700000000003
aF632.07899999999995
aF632.12199999999996
aF632.50900000000001
aF632.64999999999998
aF632.83299999999997
aF633.13699999999994
aF633.36300000000006
aF633.65499999999997
aF633.66099999999994
aF633.95799999999997
aF634.178
aF634.178
aF634.41700000000003
aF634.85599999999999
aF634.86000000000001
aF635.00300000000004
aF635.00300000000004
aF635.19000000000005
aF635.28700000000003
aF635.32399999999996
aF635.50400000000002
aF635.529
aF635.55200000000002
aF635.55200000000002
aF635.61500000000001
aF635.66099999999994
aF635.76999999999998
aF635.77800000000002
aF636.05399999999997
aF636.06100000000004
aF636.20399999999995
aF636.26700000000005
aF636.27499999999998
aF636.54399999999998
aF636.76999999999998
aF636.827
aF636.87
aF637.00800000000004
aF637.07399999999996
aF637.173
aF637.22900000000004
aF637.375
aF637.37800000000004
aF637.38099999999997
aF637.39800000000002
aF637.50999999999999
aF637.59699999999998
aF637.62199999999996
aF637.80499999999995
aF637.80799999999999
aF637.88400000000001
aF637.89200000000005
aF637.94600000000003
aF638.13900000000001
aF638.38800000000003
aF638.40200000000004
aF638.774
aF638.77999999999997
aF638.81799999999998
aF638.82000000000005
aF638.83600000000001
aF638.94600000000003
aF638.96600000000001
aF639.13099999999997
aF639.13400000000001
aF639.23699999999997
aF639.30399999999997
aF639.66999999999996
aF639.67200000000003
aF640.08900000000006
aF640.09400000000005
aF640.77099999999996
aF640.77200000000005
aF640.88199999999995
aF640.98099999999999
aF641.01800000000003
aF641.02800000000002
aF641.10400000000004
aF641.32299999999998
aF641.63400000000001
aF641.649
aF641.745
aF641.846
aF641.88499999999999
aF641.91899999999998
aF641.95000000000005
aF642.10699999999997
aF642.35000000000002
aF642.35400000000004
aF643.28599999999994
aF643.28599999999994
aF643.36300000000006
aF643.69399999999996
aF643.80799999999999
aF643.84299999999996
aF643.85699999999997
aF643.91099999999994
aF644.51199999999994
aF644.63099999999997
aF644.80899999999997
aF644.81100000000004
aF644.97900000000004
aF644.98000000000002
aF645.07399999999996
aF645.12800000000004
aF645.37
aF645.38599999999997
aF645.39999999999998
aF645.56600000000003
aF645.76099999999997
aF645.76400000000001
aF646.00599999999997
aF646.101
aF646.31200000000001
aF646.31200000000001
aF646.46699999999998
aF647.00599999999997
aF647.30999999999995
aF647.42600000000004
aF647.50400000000002
aF647.50900000000001
aF647.55600000000004
aF648.02599999999995
aF648.04600000000005
aF648.04999999999995
aF648.15599999999995
aF648.48099999999999
aF648.48900000000003
aF648.57000000000005
aF648.69399999999996
aF649.10699999999997
aF649.10799999999995
aF649.23800000000006
aF649.36699999999996
aF649.375
aF649.59299999999996
aF650.06200000000001
aF650.29999999999995
aF650.71699999999998
aF650.73000000000002
aF650.79700000000003
aF651.12400000000002
aF651.15200000000004
aF651.178
aF651.346
aF651.40300000000002
aF651.88999999999999
aF651.89999999999998
aF651.98299999999995
aF652.02999999999997
aF652.12099999999998
aF652.20500000000004
aF652.67700000000002
aF652.84400000000005
aF652.94200000000001
aF652.95399999999995
aF653.24800000000005
aF653.25599999999997
aF653.36500000000001
aF653.36800000000005
aF653.46000000000004
aF653.48199999999997
aF653.49000000000001
aF653.49099999999999
aF653.678
aF653.72400000000005
aF654.08399999999995
aF654.16399999999999
aF654.202
aF654.34199999999998
aF654.34699999999998
aF654.77999999999997
aF655.05200000000002
aF655.64300000000003
aF655.71600000000001
aF655.72000000000003
aF655.72500000000002
aF655.72500000000002
aF655.83399999999995
aF656.22799999999995
aF656.22900000000004
aF656.26400000000001
aF656.27099999999996
aF656.29899999999998
aF656.36000000000001
aF656.59699999999998
aF656.59799999999996
aF656.67200000000003
aF656.69600000000003
aF656.72500000000002
aF656.78700000000003
aF657.024
aF657.03200000000004
aF657.14099999999996
aF657.23199999999997
aF657.28200000000004
aF657.28800000000001
aF657.79499999999996
aF657.95799999999997
aF658.30200000000002
aF658.31399999999996
aF658.32399999999996
aF658.36699999999996
aF658.37699999999995
aF658.43100000000004
aF658.46799999999996
aF658.48800000000006
aF658.702
aF658.70600000000002
aF658.78399999999999
aF658.78800000000001
aF658.86900000000003
aF658.952
aF658.95600000000002
aF658.99099999999999
aF659.01400000000001
aF659.13199999999995
aF659.24400000000003
aF659.24400000000003
aF659.75699999999995
aF659.77599999999995
aF659.78300000000002
aF659.83399999999995
aF660.15999999999997
aF660.38599999999997
aF660.65999999999997
aF660.70899999999995
aF660.96299999999997
aF660.995
aF661.18200000000002
aF661.28899999999999
aF661.53999999999996
aF661.67999999999995
aF661.71600000000001
aF661.84500000000003
aF662.73299999999995
aF663.05600000000004
aF663.26700000000005
aF663.279
aF663.32799999999997
aF663.33100000000002
aF663.35199999999998
aF663.63
aF663.63499999999999
aF664.05100000000004
aF664.18899999999996
aF664.36400000000003
aF664.36699999999996
aF664.40099999999995
aF664.60299999999995
aF664.649
aF664.79700000000003
aF665.00300000000004
aF665.19899999999996
aF665.31799999999998
aF665.32000000000005
aF666.05799999999999
aF666.06200000000001
aF666.26300000000003
aF666.36099999999999
aF666.38599999999997
aF666.39200000000005
aF666.91800000000001
aF666.94399999999996
aF666.952
aF667.024
aF667.43299999999999
aF667.44200000000001
aF667.52200000000005
aF667.73099999999999
aF668.77599999999995
aF668.78099999999995
aF668.92399999999998
aF669.09900000000005
aF669.11099999999999
aF669.202
aF669.38800000000003
aF669.38999999999999
aF669.41300000000001
aF669.99099999999999
aF670.0
aF670.08100000000002
aF670.10400000000004
aF670.15599999999995
aF670.18600000000004
aF670.68100000000004
aF670.95899999999995
aF671.29499999999996
aF671.298
aF671.29999999999995
aF671.87699999999995
aF671.91499999999996
aF671.91899999999998
aF672.06399999999996
aF672.07799999999997
aF672.10000000000002
aF672.18399999999997
aF672.18399999999997
aF672.45000000000005
aF673.00599999999997
aF673.06200000000001
aF673.48500000000001
aF673.66800000000001
aF673.68700000000001
aF673.83900000000006
aF673.95500000000004
aF674.27099999999996
aF674.27200000000005
aF674.30700000000002
aF674.37400000000002
aF674.39999999999998
aF674.654
aF674.66300000000001
aF675.03300000000002
aF675.03800000000001
aF675.298
aF675.62599999999998
aF676.33900000000006
aF676.35000000000002
aF676.36400000000003
aF676.37300000000005
aF676.37599999999998
aF676.38099999999997
aF676.38599999999997
aF676.42399999999998
aF676.42499999999995
aF676.65999999999997
aF676.73000000000002
aF677.15999999999997
aF677.30799999999999
aF678.23900000000003
aF678.24000000000001
aF678.452
aF678.45500000000004
aF678.46699999999998
aF678.73599999999999
aF678.94500000000005
aF678.96799999999996
aF679.38599999999997
aF679.38900000000001
aF679.50300000000004
aF679.505
aF679.54499999999996
aF679.55899999999997
aF679.56600000000003
aF679.56600000000003
aF679.97900000000004
aF679.98199999999997
aF680.15599999999995
aF680.33299999999997
aF680.60199999999998
aF680.82500000000005
aF680.83000000000004
aF680.87
aF681.01999999999998
aF681.02599999999995
aF681.06700000000001
aF681.24199999999996
aF681.31500000000005
aF681.74400000000003
aF681.96500000000003
aF681.99300000000005
aF682.04399999999998
aF682.452
aF682.51700000000005
aF682.68200000000002
aF683.01199999999994
aF683.14300000000003
aF683.19200000000001
aF683.33199999999999
aF683.40200000000004
aF683.404
aF683.86800000000005
aF684.77800000000002
aF684.82299999999998
aF685.01400000000001
aF685.26999999999998
aF685.57799999999997
aF685.66999999999996
aF685.67100000000005
aF685.79100000000005
aF685.79100000000005
aF686.19399999999996
aF686.197
aF686.54399999999998
aF686.54499999999996
aF686.55899999999997
aF686.779
aF687.16099999999994
aF687.21799999999996
aF687.47199999999998
aF687.63499999999999
aF687.65800000000002
aF687.68200000000002
aF687.85699999999997
aF687.92200000000003
aF688.23500000000001
aF688.72000000000003
aF688.76900000000001
aF689.17999999999995
aF689.21699999999998
aF689.41999999999996
aF689.53800000000001
aF689.62800000000004
aF689.63400000000001
aF689.63499999999999
aF689.98299999999995
aF689.995
aF690.03399999999999
aF690.303
aF690.33900000000006
aF690.41999999999996
aF690.601
aF690.76499999999999
aF690.86500000000001
aF691.24800000000005
aF691.37599999999998
aF691.37699999999995
aF691.75300000000004
aF691.79999999999995
aF691.89599999999996
aF691.89700000000005
aF691.98099999999999
aF691.99000000000001
aF692.63300000000004
aF692.63999999999999
aF692.649
aF692.90899999999999
aF693.11199999999997
aF693.17200000000003
aF693.173
aF693.35000000000002
aF693.35900000000004
aF693.50599999999997
aF693.72699999999998
aF693.89400000000001
aF694.03200000000004
aF694.06200000000001
aF694.07000000000005
aF694.072
aF694.20299999999997
aF694.27499999999998
aF694.62400000000002
aF694.66600000000005
aF694.846
aF694.91200000000003
aF695.33600000000001
aF695.35400000000004
aF695.36500000000001
aF695.54700000000003
aF695.56399999999996
aF695.84100000000001
aF696.03599999999994
aF696.03899999999999
aF696.23500000000001
aF696.23699999999997
aF696.41899999999998
aF696.42499999999995
aF696.68399999999997
aF696.79300000000001
aF697.23500000000001
aF697.31899999999996
aF697.35699999999997
aF697.36500000000001
aF697.61000000000001
aF697.70399999999995
aF697.78099999999995
aF697.84000000000003
aF697.94000000000005
aF698.38
aF698.38499999999999
aF698.40899999999999
aF698.58000000000004
aF698.86699999999996
aF698.87199999999996
aF699.07100000000003
aF699.08000000000004
aF699.33399999999995
aF699.39700000000005
aF699.91200000000003
aF699.91499999999996
aF700.04300000000001
aF700.13400000000001
aF700.33000000000004
aF700.82000000000005
aF700.83199999999999
aF700.85900000000004
aF700.89999999999998
aF700.90300000000002
aF701.29899999999998
aF701.54200000000003
aF701.61900000000003
aF701.64800000000002
aF701.69000000000005
aF701.82100000000003
aF701.82799999999997
aF701.96400000000006
aF702.02099999999996
aF702.25900000000001
aF702.27099999999996
aF702.69200000000001
aF702.73400000000004
aF702.73500000000001
aF702.76099999999997
aF702.76300000000003
aF702.95000000000005
aF702.96600000000001
aF703.16399999999999
aF703.33600000000001
aF703.33600000000001
aF703.41399999999999
aF703.548
aF703.63099999999997
aF703.85199999999998
aF703.96600000000001
aF703.97699999999998
aF704.05899999999997
aF704.08900000000006
aF704.14599999999996
aF704.21699999999998
aF704.22500000000002
aF704.60500000000002
aF704.61400000000003
aF704.62400000000002
aF704.64400000000001
aF704.66899999999998
aF704.91800000000001
aF705.00400000000002
aF705.03999999999996
aF705.04700000000003
aF705.13499999999999
aF705.149
aF705.25400000000002
aF705.26400000000001
aF705.79399999999998
aF705.90899999999999
aF705.91300000000001
aF705.94500000000005
aF705.94899999999996
aF705.99300000000005
aF706.17600000000004
aF706.18200000000002
aF706.18799999999999
aF706.21199999999999
aF706.21400000000006
aF706.24400000000003
aF706.55399999999997
aF706.74400000000003
aF706.76800000000003
aF706.94899999999996
aF707.14999999999998
aF707.29600000000005
aF707.39099999999996
aF707.49099999999999
aF707.71199999999999
aF707.72199999999998
aF707.76199999999994
aF707.76599999999996
aF708.048
aF708.21000000000004
aF708.22299999999996
aF708.44000000000005
aF708.68799999999999
aF708.69600000000003
aF708.91300000000001
aF709.351
aF709.44899999999996
aF709.45299999999997
aF709.94600000000003
aF710.37199999999996
aF710.375
aF710.72400000000005
aF710.88199999999995
aF711.12300000000005
aF711.149
aF711.19799999999998
aF711.28800000000001
aF711.30200000000002
aF711.62699999999995
aF711.63400000000001
aF711.88300000000004
aF712.20500000000004
aF712.42399999999998
aF712.49400000000003
aF712.50099999999998
aF712.56600000000003
aF712.57500000000005
aF712.94200000000001
aF713.01199999999994
aF713.11599999999999
aF713.15999999999997
aF713.20600000000002
aF713.27200000000005
aF713.27700000000004
aF713.29300000000001
aF713.34500000000003
aF713.35799999999995
aF713.52700000000004
aF713.62599999999998
aF713.93200000000002
aF713.93499999999995
aF713.93700000000001
aF714.08399999999995
aF714.274
aF714.38900000000001
aF714.41700000000003
aF714.45100000000002
aF714.84699999999998
aF714.85299999999995
aF715.09799999999996
aF715.09799999999996
aF715.15599999999995
aF715.27599999999995
aF715.63900000000001
aF715.89099999999996
aF715.90099999999995
aF715.94200000000001
aF716.06100000000004
aF716.12300000000005
aF716.41800000000001
aF716.46699999999998
aF716.47400000000005
aF716.55200000000002
aF716.63599999999997
aF716.64300000000003
aF716.75400000000002
aF716.75800000000004
aF716.76800000000003
aF716.83000000000004
aF716.83000000000004
aF716.84000000000003
aF716.95399999999995
aF716.96699999999998
aF717.19000000000005
aF717.33399999999995
aF717.33600000000001
aF717.45299999999997
aF717.82399999999996
aF717.83299999999997
aF717.99400000000003
aF718.02800000000002
aF718.09400000000005
aF718.27800000000002
aF718.52099999999996
aF718.60900000000004
aF719.02499999999998
aF719.02800000000002
aF719.14099999999996
aF719.41600000000005
aF719.42399999999998
aF719.48800000000006
aF719.49400000000003
aF719.49900000000002
aF719.50300000000004
aF719.50400000000002
aF719.50900000000001
aF719.58799999999997
aF719.59299999999996
aF719.73900000000003
aF719.74199999999996
aF719.80700000000002
aF719.81299999999999
aF720.03399999999999
aF720.05100000000004
aF720.07799999999997
aF720.66899999999998
aF720.678
aF720.89200000000005
aF720.90700000000004
aF721.14099999999996
aF721.61500000000001
aF721.68799999999999
aF721.79600000000005
aF722.00400000000002
aF722.74400000000003
aF722.99099999999999
aF722.99900000000002
aF723.10599999999999
aF723.20100000000002
aF723.20600000000002
aF723.76599999999996
aF723.82000000000005
aF723.85000000000002
aF724.27800000000002
aF724.35900000000004
aF724.55399999999997
aF724.55899999999997
aF724.76199999999994
aF724.803
aF724.96400000000006
aF725.29700000000003
aF725.43799999999999
aF725.50900000000001
aF725.73900000000003
aF726.45000000000005
aF726.45399999999995
aF726.50300000000004
aF726.529
aF726.63099999999997
aF726.69000000000005
aF726.73599999999999
aF726.745
aF726.96500000000003
aF726.99800000000005
aF727.00999999999999
aF727.33100000000002
aF727.33299999999997
aF727.35500000000002
aF727.38199999999995
aF727.39999999999998
aF727.51400000000001
aF727.70299999999997
aF727.70799999999997
aF727.78300000000002
aF728.13199999999995
aF728.13400000000001
aF728.17200000000003
aF728.26599999999996
aF728.51199999999994
aF728.92899999999997
aF728.96600000000001
aF729.01499999999999
aF729.02200000000005
aF729.03300000000002
aF729.25999999999999
aF729.524
aF729.721
aF729.96000000000004
aF730.05600000000004
aF730.42399999999998
aF731.15800000000002
aF731.22299999999996
aF731.23500000000001
aF731.29200000000003
aF731.30600000000004
aF731.59799999999996
aF731.74000000000001
aF731.74599999999998
aF732.00999999999999
aF732.096
aF732.49199999999996
aF732.53700000000003
aF732.59100000000001
aF732.69799999999998
aF732.81799999999998
aF733.298
aF733.59400000000005
aF733.66399999999999
aF733.66999999999996
aF734.08199999999999
aF734.11099999999999
aF734.12599999999998
aF734.26800000000003
aF734.27800000000002
aF734.72000000000003
aF734.72000000000003
aF734.74199999999996
aF734.78200000000004
aF734.78599999999994
aF734.87599999999998
aF734.88199999999995
aF735.40200000000004
aF735.42600000000004
aF735.54200000000003
aF735.55399999999997
aF735.71699999999998
aF735.745
aF735.82000000000005
aF736.18399999999997
aF736.18499999999995
aF736.19200000000001
aF736.19200000000001
aF736.22299999999996
aF736.96000000000004
aF736.97500000000002
aF737.12800000000004
aF737.24300000000005
aF737.37099999999998
aF737.53399999999999
aF737.91200000000003
aF738.11699999999996
aF738.32600000000002
aF738.351
aF738.42100000000005
aF738.43600000000004
aF738.76300000000003
aF738.76800000000003
aF738.77200000000005
aF738.78200000000004
aF738.88
aF738.93399999999997
aF739.38599999999997
aF739.40999999999997
aF739.68200000000002
aF740.101
aF740.22900000000004
aF740.46600000000001
aF740.73800000000006
aF740.88499999999999
aF740.93799999999999
aF740.94000000000005
aF741.03200000000004
aF741.38699999999994
aF741.58799999999997
aF741.67999999999995
aF741.73500000000001
aF741.98199999999997
aF742.10900000000004
aF742.16200000000003
aF742.25199999999995
aF742.39200000000005
aF742.41499999999996
aF742.41600000000005
aF742.54200000000003
aF742.78399999999999
aF742.79300000000001
aF742.80200000000002
aF742.92399999999998
aF742.97699999999998
aF742.98000000000002
aF742.98900000000003
aF743.0
aF743.01999999999998
aF743.68899999999996
aF743.78499999999997
aF744.00300000000004
aF744.01700000000005
aF744.173
aF744.19100000000003
aF744.95699999999999
aF745.15200000000004
aF745.66999999999996
aF745.78499999999997
aF746.14400000000001
aF746.29999999999995
aF746.303
aF746.49800000000005
aF746.50300000000004
aF746.60799999999995
aF747.07000000000005
aF747.13199999999995
aF747.56700000000001
aF747.56899999999996
aF747.572
aF747.62099999999998
aF747.86699999999996
aF747.87699999999995
aF748.02200000000005
aF748.255
aF748.27300000000002
aF748.39999999999998
aF748.51099999999997
aF748.59000000000003
aF748.81600000000003
aF748.82100000000003
aF749.05999999999995
aF749.125
aF749.40899999999999
aF749.53599999999994
aF749.75900000000001
aF749.78099999999995
aF750.24800000000005
aF750.34699999999998
aF750.59500000000003
aF750.61400000000003
aF751.01599999999996
aF751.02200000000005
aF751.125
aF751.28200000000004
aF751.33000000000004
aF751.35199999999998
aF751.50599999999997
aF751.68200000000002
aF751.92899999999997
aF751.92999999999995
aF752.15300000000002
aF752.15999999999997
aF752.16200000000003
aF752.32799999999997
aF752.33500000000004
aF752.36199999999997
aF752.50599999999997
aF752.76400000000001
aF752.76800000000003
aF752.94500000000005
aF752.98199999999997
aF752.99000000000001
aF753.51800000000003
aF753.73099999999999
aF753.74000000000001
aF753.74300000000005
aF753.98699999999997
aF754.04499999999996
aF754.05999999999995
aF754.10299999999995
aF754.15300000000002
aF754.72799999999995
aF754.72900000000004
aF754.99300000000005
aF755.00800000000004
aF755.00800000000004
aF755.13199999999995
aF755.34000000000003
aF755.73199999999997
aF755.95799999999997
aF756.09199999999998
aF756.09500000000003
aF756.35500000000002
aF756.50199999999995
aF756.61800000000005
aF757.03200000000004
aF757.548
aF757.56399999999996
aF757.59000000000003
aF757.59900000000005
aF757.67600000000004
aF757.84799999999996
aF757.90200000000004
aF758.30600000000004
aF758.37099999999998
aF758.51400000000001
aF758.54300000000001
aF758.58100000000002
aF758.64099999999996
aF758.64499999999998
aF759.351
aF759.49000000000001
aF759.88400000000001
aF759.88599999999997
aF759.93700000000001
aF760.01199999999994
aF760.39200000000005
aF760.67899999999997
aF760.78599999999994
aF760.94200000000001
aF760.947
aF761.35299999999995
aF761.40599999999995
aF761.68700000000001
aF761.69200000000001
aF761.89200000000005
aF761.94600000000003
aF762.05499999999995
aF762.07000000000005
aF762.07399999999996
aF762.17499999999995
aF762.26300000000003
aF762.27200000000005
aF762.58900000000006
aF762.59000000000003
aF762.89099999999996
aF762.89099999999996
aF763.17999999999995
aF763.36400000000003
aF763.46600000000001
aF763.47199999999998
aF763.90800000000002
aF764.17499999999995
aF764.24199999999996
aF764.25999999999999
aF764.39200000000005
aF764.399
aF764.42399999999998
aF764.56100000000004
aF764.66700000000003
aF764.70699999999999
aF764.75199999999995
aF764.77099999999996
aF764.97500000000002
aF765.07100000000003
aF765.71900000000005
aF765.82000000000005
aF766.10799999999995
aF766.10799999999995
aF766.13099999999997
aF766.16600000000005
aF766.99199999999996
aF767.226
aF767.36099999999999
aF767.38499999999999
aF767.45000000000005
aF767.71000000000004
aF767.79300000000001
aF767.81799999999998
aF767.88199999999995
aF767.88999999999999
aF768.22000000000003
aF768.22400000000005
aF768.27499999999998
aF768.27499999999998
aF768.32799999999997
aF768.35299999999995
aF768.44100000000003
aF768.53399999999999
aF768.57799999999997
aF768.63400000000001
aF768.63699999999994
aF768.65999999999997
aF768.67999999999995
aF768.73400000000004
aF768.73900000000003
aF768.79200000000003
aF768.87900000000002
aF768.99400000000003
aF769.14200000000005
aF769.14400000000001
aF769.375
aF769.53499999999997
aF769.57000000000005
aF769.93200000000002
aF769.96000000000004
aF770.072
aF770.20299999999997
aF770.91999999999996
aF771.32100000000003
aF771.33799999999997
aF771.40599999999995
aF771.577
aF771.58799999999997
aF771.59199999999998
aF771.80200000000002
aF771.91999999999996
aF771.92200000000003
aF771.928
aF772.08299999999997
aF772.13800000000003
aF772.13800000000003
aF772.18700000000001
aF772.20100000000002
aF772.24199999999996
aF772.27999999999997
aF772.32600000000002
aF772.48500000000001
aF772.67100000000005
aF772.67899999999997
aF772.75599999999997
aF772.90999999999997
aF772.93899999999996
aF773.11500000000001
aF773.23500000000001
aF773.58699999999999
aF773.81799999999998
aF773.98000000000002
aF774.09100000000001
aF774.09699999999998
aF774.33199999999999
aF774.38400000000001
aF774.62199999999996
aF774.625
aF774.74599999999998
aF774.74800000000005
aF774.77200000000005
aF774.77999999999997
aF774.79100000000005
aF775.02700000000004
aF775.03499999999997
aF775.07000000000005
aF775.11900000000003
aF775.35599999999999
aF775.65599999999995
aF775.76999999999998
aF775.78300000000002
aF775.96000000000004
aF776.10599999999999
aF776.21600000000001
aF776.22299999999996
aF776.30899999999997
aF776.428
aF776.42999999999995
aF776.43200000000002
aF777.67399999999998
aF777.70600000000002
aF778.50800000000004
aF778.89099999999996
aF778.92499999999995
aF779.30999999999995
aF779.41800000000001
aF779.41899999999998
aF779.91200000000003
aF779.91499999999996
aF780.17999999999995
aF780.37199999999996
aF780.46799999999996
aF780.48500000000001
aF780.77700000000004
aF780.99599999999998
aF781.19500000000005
aF781.76599999999996
aF782.154
aF782.21699999999998
aF782.221
aF782.73500000000001
aF783.06200000000001
aF783.06799999999998
aF783.20399999999995
aF783.23000000000002
aF783.42200000000003
aF783.42499999999995
aF783.46799999999996
aF783.51400000000001
aF783.524
aF783.82000000000005
aF784.005
aF784.17200000000003
aF784.25999999999999
aF784.35599999999999
aF784.51199999999994
aF784.77300000000002
aF784.91200000000003
aF784.92399999999998
aF785.13999999999999
aF785.25
aF785.25400000000002
aF785.33699999999999
aF785.44500000000005
aF785.47000000000003
aF785.67700000000002
aF785.97900000000004
aF785.98599999999999
aF786.00099999999998
aF786.05600000000004
aF786.27200000000005
aF786.35000000000002
aF786.351
aF786.65800000000002
aF786.76900000000001
aF786.99900000000002
aF787.19799999999998
aF787.34199999999998
aF787.37599999999998
aF787.827
aF787.94100000000003
aF788.12099999999998
aF788.17600000000004
aF788.19000000000005
aF788.24300000000005
aF788.25099999999998
aF788.27300000000002
aF788.27700000000004
aF788.327
aF788.529
aF788.53999999999996
aF788.68799999999999
aF789.07399999999996
aF789.10799999999995
aF789.31500000000005
aF790.04100000000005
aF790.04300000000001
aF790.11400000000003
aF790.24000000000001
aF790.24199999999996
aF790.25400000000002
aF790.25800000000004
aF790.55100000000004
aF790.93799999999999
aF791.03999999999996
aF791.10199999999998
aF791.38099999999997
aF791.51599999999996
aF791.53499999999997
aF791.53499999999997
aF791.56500000000005
aF791.56700000000001
aF791.75400000000002
aF792.19799999999998
aF792.298
aF792.30899999999997
aF792.42700000000002
aF792.42700000000002
aF792.42999999999995
aF792.44600000000003
aF792.73099999999999
aF792.73299999999995
aF792.85400000000004
aF792.86699999999996
aF793.73599999999999
aF793.827
aF793.86199999999997
aF793.95899999999995
aF794.61300000000006
aF795.01800000000003
aF795.322
aF795.83000000000004
aF795.83900000000006
aF795.90700000000004
aF796.23299999999995
aF796.625
aF797.36199999999997
aF797.36400000000003
aF797.88400000000001
aF797.92600000000004
aF797.95600000000002
aF798.19299999999998
aF798.28899999999999
aF798.34000000000003
aF798.59100000000001
aF798.88099999999997
aF798.96299999999997
aF799.08900000000006
aF799.26599999999996
aF799.27800000000002
aF799.30999999999995
aF799.54300000000001
aF799.62199999999996
aF799.73400000000004
aF799.74599999999998
aF799.78399999999999
aF799.81399999999996
aF799.93399999999997
aF799.94200000000001
aF800.40599999999995
aF800.40999999999997
aF800.63
aF800.79100000000005
aF800.81200000000001
aF800.94399999999996
aF801.20500000000004
aF801.35799999999995
aF801.596
aF801.83100000000002
aF801.952
aF801.95500000000004
aF801.95699999999999
aF801.97500000000002
aF802.28999999999996
aF802.35400000000004
aF802.50999999999999
aF802.54700000000003
aF802.56500000000005
aF802.56600000000003
aF802.86699999999996
aF802.86800000000005
aF802.99099999999999
aF803.154
aF803.15599999999995
aF803.16300000000001
aF803.33199999999999
aF803.41399999999999
aF803.62900000000002
aF803.72400000000005
aF803.81799999999998
aF803.82799999999997
aF803.83100000000002
aF803.91600000000005
aF804.44100000000003
aF804.72000000000003
aF804.72799999999995
aF805.31500000000005
aF805.32100000000003
aF805.33000000000004
aF805.35000000000002
aF805.44399999999996
aF805.47000000000003
aF805.63199999999995
aF805.66399999999999
aF805.75999999999999
aF805.79700000000003
aF805.85500000000002
aF805.86000000000001
aF805.99400000000003
aF806.226
aF806.41600000000005
aF806.51999999999998
aF806.63
aF806.75
aF806.85799999999995
aF806.86199999999997
aF807.19000000000005
aF807.19600000000003
aF807.74400000000003
aF808.06399999999996
aF808.18200000000002
aF808.18399999999997
aF808.49599999999998
aF808.65800000000002
aF808.66399999999999
aF808.755
aF808.75599999999997
aF808.96400000000006
aF809.17700000000002
aF809.18100000000004
aF809.18799999999999
aF809.67200000000003
aF809.81899999999996
aF810.03099999999995
aF810.39499999999998
aF810.47000000000003
aF810.51199999999994
aF810.57899999999995
aF810.69799999999998
aF812.24800000000005
aF812.38199999999995
aF812.51999999999998
aF812.66300000000001
aF812.80600000000004
aF813.04999999999995
aF813.34000000000003
aF813.38699999999994
aF813.45699999999999
aF813.46000000000004
aF813.70600000000002
aF813.71299999999997
aF814.23599999999999
aF814.245
aF814.36199999999997
aF814.59500000000003
aF814.87400000000002
aF815.149
aF815.15599999999995
aF815.37400000000002
aF815.43399999999997
aF815.63900000000001
aF815.84000000000003
aF815.91600000000005
aF815.92999999999995
aF816.51400000000001
aF816.77599999999995
aF816.78899999999999
aF816.89800000000002
aF816.98900000000003
aF817.12
aF817.19600000000003
aF817.24300000000005
aF817.25400000000002
aF817.274
aF817.49400000000003
aF818.28300000000002
aF818.35400000000004
aF818.58000000000004
aF818.85500000000002
aF818.92499999999995
aF819.08000000000004
aF819.29300000000001
aF819.67100000000005
aF819.67399999999998
aF819.67499999999995
aF819.68200000000002
aF819.69799999999998
aF819.721
aF819.75099999999998
aF819.86599999999999
aF819.98400000000004
aF820.48400000000004
aF820.60599999999999
aF820.82899999999995
aF820.88999999999999
aF821.08299999999997
aF821.21100000000001
aF821.36500000000001
aF821.45000000000005
aF821.48299999999995
aF821.49300000000005
aF821.77300000000002
aF821.774
aF822.35199999999998
aF822.35599999999999
aF822.41099999999994
aF822.46799999999996
aF822.64800000000002
aF822.66700000000003
aF822.72799999999995
aF822.86099999999999
aF823.08100000000002
aF823.15800000000002
aF823.56799999999998
aF823.58199999999999
aF823.59000000000003
aF823.62800000000004
aF823.83199999999999
aF824.49900000000002
aF824.50099999999998
aF824.50400000000002
aF825.04600000000005
aF825.15200000000004
aF825.55700000000002
aF825.56200000000001
aF825.79399999999998
aF825.85000000000002
aF825.97000000000003
aF826.08900000000006
aF826.149
aF826.15999999999997
aF826.28399999999999
aF826.33299999999997
aF826.53899999999999
aF826.54899999999998
aF826.76700000000005
aF826.88
aF827.06600000000003
aF827.14999999999998
aF827.73699999999997
aF827.82399999999996
aF827.96600000000001
aF827.99199999999996
aF828.27200000000005
aF828.27800000000002
aF828.30600000000004
aF828.31100000000004
aF828.44600000000003
aF828.64200000000005
aF828.69600000000003
aF828.71500000000003
aF828.71900000000005
aF828.79899999999998
aF828.80799999999999
aF828.84699999999998
aF828.93399999999997
aF828.93799999999999
aF828.95299999999997
aF829.02599999999995
aF829.30499999999995
aF829.30499999999995
aF829.40800000000002
aF829.65300000000002
aF829.66399999999999
aF829.678
aF829.69600000000003
aF829.93399999999997
aF829.95600000000002
aF830.29899999999998
aF830.31200000000001
aF830.31500000000005
aF830.93600000000004
aF830.95600000000002
aF831.17899999999997
aF831.18299999999999
aF831.18799999999999
aF831.23599999999999
aF831.24000000000001
aF831.50999999999999
aF831.51300000000003
aF831.64300000000003
aF831.65999999999997
aF831.92399999999998
aF831.93600000000004
aF832.15300000000002
aF832.37599999999998
aF832.53700000000003
aF832.56299999999999
aF832.79999999999995
aF832.85000000000002
aF832.94100000000003
aF832.947
aF833.13
aF833.14300000000003
aF833.16399999999999
aF833.25099999999998
aF833.43299999999999
aF833.53899999999999
aF833.54100000000005
aF833.625
aF833.92499999999995
aF834.13699999999994
aF834.30200000000002
aF834.41099999999994
aF834.41800000000001
aF834.45000000000005
aF835.154
aF835.55200000000002
aF835.59400000000005
aF835.59799999999996
aF836.02599999999995
aF836.03599999999994
aF836.07899999999995
aF836.16899999999998
aF836.49000000000001
aF836.70699999999999
aF836.87400000000002
aF836.87400000000002
aF837.32899999999995
aF837.64599999999996
aF837.88900000000001
aF838.00999999999999
aF838.16800000000001
aF838.29999999999995
aF838.31799999999998
aF838.62900000000002
aF838.96100000000001
aF839.0
aF839.01400000000001
aF839.14700000000005
aF839.16399999999999
aF840.04700000000003
aF840.05200000000002
aF840.06600000000003
aF840.17600000000004
aF840.178
aF840.24099999999999
aF840.35599999999999
aF841.10000000000002
aF841.14700000000005
aF841.17700000000002
aF841.68100000000004
aF841.88199999999995
aF842.08199999999999
aF842.09000000000003
aF842.09400000000005
aF842.10799999999995
aF842.14400000000001
aF842.39400000000001
aF842.41499999999996
aF842.71299999999997
aF842.71500000000003
aF842.95799999999997
aF842.96000000000004
aF843.00699999999995
aF843.63599999999997
aF843.66600000000005
aF843.76900000000001
aF844.07799999999997
aF844.12800000000004
aF844.16999999999996
aF844.18299999999999
aF844.32000000000005
aF844.32799999999997
aF844.66999999999996
aF844.77800000000002
aF845.16300000000001
aF845.19000000000005
aF845.22799999999995
aF845.55200000000002
aF845.92499999999995
aF845.93100000000004
aF846.29399999999998
aF846.45600000000002
aF846.56799999999998
aF846.61199999999997
aF846.86699999999996
aF846.95500000000004
aF846.95699999999999
aF846.95699999999999
aF847.39099999999996
aF847.47299999999996
aF847.63400000000001
aF847.74000000000001
aF847.80600000000004
aF847.899
aF847.90499999999997
aF848.125
aF848.226
aF848.31799999999998
aF848.53800000000001
aF848.63699999999994
aF848.68100000000004
aF848.88900000000001
aF848.90800000000002
aF849.02700000000004
aF849.14700000000005
aF849.18700000000001
aF849.28700000000003
aF849.29600000000005
aF849.30799999999999
aF849.38999999999999
aF850.04200000000003
aF850.06700000000001
aF850.07399999999996
aF850.07899999999995
aF850.57899999999995
aF850.83600000000001
aF850.976
aF850.976
aF851.07000000000005
aF851.20600000000002
aF851.226
aF851.34699999999998
aF851.69399999999996
aF851.86000000000001
aF851.92200000000003
aF851.93299999999999
aF852.11599999999999
aF852.13499999999999
aF852.19299999999998
aF852.23500000000001
aF852.42100000000005
aF852.43799999999999
aF852.45299999999997
aF852.48199999999997
aF852.50400000000002
aF852.51800000000003
aF852.822
aF852.904
aF853.11599999999999
aF853.11800000000005
aF853.18399999999997
aF853.49199999999996
aF853.61300000000006
aF853.65599999999995
aF853.80100000000004
aF853.89300000000003
aF854.08000000000004
aF854.23099999999999
aF854.26800000000003
aF854.28800000000001
aF854.32299999999998
aF854.38499999999999
aF854.49800000000005
aF854.65800000000002
aF855.00300000000004
aF855.01199999999994
aF855.10599999999999
aF855.11300000000006
aF855.14700000000005
aF855.21100000000001
aF855.21299999999997
aF855.25099999999998
aF855.29899999999998
aF855.30100000000004
aF855.31200000000001
aF855.35000000000002
aF855.60000000000002
aF856.19200000000001
aF856.221
aF856.22400000000005
aF856.24900000000002
aF856.32799999999997
aF856.548
aF856.68899999999996
aF856.93399999999997
aF856.93899999999996
aF856.99199999999996
aF856.99400000000003
aF857.09400000000005
aF857.32399999999996
aF857.39999999999998
aF857.40200000000004
aF857.40499999999997
aF857.40800000000002
aF857.42200000000003
aF857.76099999999997
aF857.91200000000003
aF858.16399999999999
aF858.17100000000005
aF858.18399999999997
aF858.28899999999999
aF858.36400000000003
aF859.00400000000002
aF859.14800000000002
aF859.17100000000005
aF859.38300000000004
aF859.39200000000005
aF859.69799999999998
aF859.70100000000002
aF859.75199999999995
aF859.75800000000004
aF859.95699999999999
aF859.99599999999998
aF860.03399999999999
aF860.05899999999997
aF860.17200000000003
aF860.29600000000005
aF860.30600000000004
aF860.46100000000001
aF860.46699999999998
aF860.779
aF861.22799999999995
aF861.23000000000002
aF861.46699999999998
aF861.505
aF861.79999999999995
aF861.85400000000004
aF861.85599999999999
aF861.88
aF861.95899999999995
aF862.44899999999996
aF862.49400000000003
aF862.505
aF862.95799999999997
aF863.13699999999994
aF863.43700000000001
aF863.74900000000002
aF863.76599999999996
aF863.85199999999998
aF864.02300000000002
aF864.02999999999997
aF864.11000000000001
aF864.15200000000004
aF864.17200000000003
aF864.20000000000005
aF864.20399999999995
aF864.28999999999996
aF864.30200000000002
aF864.404
aF865.11199999999997
aF865.11500000000001
aF865.37099999999998
aF865.39200000000005
aF866.04999999999995
aF866.40800000000002
aF866.50999999999999
aF866.67600000000004
aF866.971
aF867.00300000000004
aF867.26099999999997
aF867.26099999999997
aF867.30499999999995
aF867.59500000000003
aF867.96199999999999
aF868.13900000000001
aF868.56600000000003
aF869.21400000000006
aF869.21699999999998
aF869.34000000000003
aF869.86599999999999
aF870.12599999999998
aF870.16999999999996
aF870.20899999999995
aF870.32500000000005
aF870.49099999999999
aF870.59900000000005
aF870.65700000000004
aF870.67200000000003
aF870.73800000000006
aF871.14200000000005
aF871.178
aF871.17899999999997
aF871.53999999999996
aF871.54700000000003
aF872.04100000000005
aF872.39499999999998
aF872.39999999999998
aF872.88499999999999
aF873.34000000000003
aF873.346
aF874.09199999999998
aF874.09400000000005
aF874.24000000000001
aF874.31299999999999
aF874.31500000000005
aF874.55999999999995
aF874.98299999999995
aF874.98400000000004
aF875.42200000000003
aF875.50599999999997
aF875.79499999999996
aF875.86599999999999
aF876.26400000000001
aF876.26999999999998
aF876.29100000000005
aF876.31500000000005
aF876.31700000000001
aF876.69000000000005
aF876.89400000000001
aF877.61900000000003
aF878.06299999999999
aF878.34799999999996
aF878.428
aF878.45500000000004
aF878.47699999999998
aF878.48199999999997
aF878.48299999999995
aF879.46400000000006
aF879.85799999999995
aF880.08799999999997
aF880.14999999999998
aF880.31600000000003
aF880.37400000000002
aF880.73000000000002
aF880.80600000000004
aF880.85299999999995
aF880.92899999999997
aF880.96299999999997
aF881.10199999999998
aF881.221
aF881.23099999999999
aF881.30999999999995
aF881.31399999999996
aF881.33900000000006
aF881.452
aF881.56399999999996
aF881.59799999999996
aF882.02099999999996
aF882.12400000000002
aF882.226
aF882.23000000000002
aF882.33399999999995
aF882.33799999999997
aF882.78399999999999
aF882.78499999999997
aF882.79100000000005
aF882.79600000000005
aF883.15700000000004
aF883.26199999999994
aF883.404
aF883.63099999999997
aF883.63199999999995
aF883.72699999999998
aF883.80100000000004
aF883.80399999999997
aF883.84400000000005
aF883.96500000000003
aF883.96699999999998
aF884.13599999999997
aF884.14999999999998
aF884.35199999999998
aF884.42100000000005
aF884.423
aF884.52200000000005
aF884.66499999999996
aF884.67600000000004
aF884.78999999999996
aF884.82000000000005
aF884.82100000000003
aF885.58199999999999
aF885.58299999999997
aF885.58900000000006
aF885.62099999999998
aF885.76400000000001
aF886.38699999999994
aF886.702
aF886.70799999999997
aF886.72799999999995
aF886.73000000000002
aF886.73699999999997
aF886.928
aF886.94200000000001
aF887.30100000000004
aF887.44000000000005
aF887.52999999999997
aF887.92200000000003
aF888.21799999999996
aF888.22500000000002
aF888.65300000000002
aF888.81200000000001
aF888.81700000000001
aF889.15700000000004
aF889.17100000000005
aF889.22500000000002
aF889.23299999999995
aF889.23599999999999
aF889.47199999999998
aF889.47400000000005
aF889.51199999999994
aF889.74099999999999
aF889.82000000000005
aF889.91300000000001
aF890.04499999999996
aF890.05100000000004
aF890.11900000000003
aF890.38199999999995
aF890.62400000000002
aF890.67600000000004
aF890.71600000000001
aF890.84799999999996
aF890.96600000000001
aF891.14400000000001
aF891.14800000000002
aF891.57799999999997
aF891.81200000000001
aF891.81399999999996
aF891.96000000000004
aF892.08799999999997
aF892.24400000000003
aF892.41099999999994
aF892.44200000000001
aF892.45299999999997
aF892.63999999999999
aF892.77599999999995
aF892.77800000000002
aF892.78099999999995
aF892.80200000000002
aF892.947
aF893.03200000000004
aF893.12900000000002
aF893.40599999999995
aF893.49400000000003
aF893.50199999999995
aF893.91800000000001
aF893.93899999999996
aF893.93899999999996
aF894.21299999999997
aF894.26800000000003
aF894.26800000000003
aF894.36500000000001
aF894.375
aF894.572
aF894.69000000000005
aF894.77599999999995
aF894.92200000000003
aF895.14999999999998
aF895.16700000000003
aF895.20100000000002
aF895.37699999999995
aF895.39499999999998
aF895.53599999999994
aF895.54399999999998
aF895.625
aF896.25900000000001
aF896.31399999999996
aF896.32100000000003
aF896.53999999999996
aF896.54100000000005
aF896.54100000000005
aF896.56100000000004
aF896.654
aF896.952
aF897.24800000000005
aF897.46699999999998
aF897.59199999999998
aF897.71500000000003
aF897.86199999999997
aF897.98500000000001
aF898.01700000000005
aF898.05899999999997
aF898.31600000000003
aF898.64400000000001
aF898.73099999999999
aF898.81200000000001
aF898.95399999999995
aF899.09100000000001
aF899.11800000000005
aF899.30100000000004
aF899.98199999999997
aF899.98400000000004
aF899.98400000000004
aF900.07799999999997
aF900.08900000000006
aF900.12699999999995
aF900.13099999999997
aF900.13199999999995
aF900.15999999999997
aF900.69600000000003
aF900.78999999999996
aF901.29300000000001
aF901.36400000000003
aF901.45600000000002
aF901.48099999999999
aF901.52599999999995
aF901.69500000000005
aF901.74400000000003
aF901.76999999999998
aF901.85500000000002
aF902.09199999999998
aF902.428
aF902.447
aF902.52200000000005
aF902.53099999999995
aF902.53800000000001
aF902.53899999999999
aF902.94299999999998
aF902.95000000000005
aF903.00099999999998
aF903.173
aF903.19100000000003
aF903.21400000000006
aF903.33100000000002
aF903.33199999999999
aF903.649
aF903.71100000000001
aF903.77599999999995
aF903.77599999999995
aF903.82399999999996
aF903.86400000000003
aF903.89800000000002
aF904.20500000000004
aF904.23800000000006
aF904.57600000000002
aF904.59299999999996
aF904.61199999999997
aF904.84400000000005
aF905.01099999999997
aF905.02200000000005
aF905.08600000000001
aF905.17200000000003
aF905.23400000000004
aF905.24300000000005
aF905.24599999999998
aF905.35900000000004
aF905.44799999999998
aF905.57299999999998
aF906.06200000000001
aF906.15200000000004
aF906.31100000000004
aF906.36000000000001
aF906.82500000000005
aF906.84699999999998
aF907.01499999999999
aF907.06700000000001
aF907.226
aF907.28999999999996
aF907.29200000000003
aF907.37199999999996
aF907.45399999999995
aF907.553
aF907.55799999999999
aF907.71400000000006
aF908.00300000000004
aF908.23199999999997
aF908.34400000000005
aF908.55899999999997
aF908.58699999999999
aF908.59100000000001
aF908.79600000000005
aF908.93600000000004
aF909.20600000000002
aF909.27599999999995
aF909.36500000000001
aF909.38
aF909.41999999999996
aF909.42999999999995
aF909.63699999999994
aF909.71000000000004
aF909.76099999999997
aF910.04499999999996
aF910.178
aF910.18399999999997
aF910.47400000000005
aF910.49099999999999
aF910.66999999999996
aF911.00599999999997
aF911.03499999999997
aF911.04200000000003
aF911.06700000000001
aF911.07799999999997
aF911.16499999999996
aF911.173
aF911.25800000000004
aF911.26199999999994
aF911.279
aF911.38
aF911.57100000000003
aF911.70000000000005
aF911.87800000000004
aF911.93399999999997
aF912.00599999999997
aF912.23000000000002
aF912.36500000000001
aF912.38999999999999
aF912.39300000000003
aF912.51700000000005
aF912.56100000000004
aF912.71600000000001
aF912.72400000000005
aF912.73199999999997
aF912.88599999999997
aF912.90700000000004
aF912.90800000000002
aF912.96199999999999
aF913.04399999999998
aF913.07299999999998
aF913.07399999999996
aF913.37699999999995
aF913.64200000000005
aF914.39999999999998
aF914.40599999999995
aF914.40800000000002
aF914.68899999999996
aF915.26400000000001
aF915.33299999999997
aF915.47400000000005
aF915.524
aF915.52700000000004
aF915.52800000000002
aF916.10900000000004
aF916.19200000000001
aF916.23299999999995
aF916.27999999999997
aF916.34100000000001
aF916.42200000000003
aF916.56100000000004
aF916.58799999999997
aF916.702
aF916.71600000000001
aF916.83799999999997
aF916.97699999999998
aF917.03599999999994
aF917.39999999999998
aF917.77800000000002
aF917.88199999999995
aF917.923
aF918.07799999999997
aF918.08100000000002
aF918.12599999999998
aF918.21199999999999
aF918.33500000000004
aF918.33799999999997
aF918.76199999999994
aF918.779
aF918.93100000000004
aF919.02800000000002
aF919.09799999999996
aF919.44600000000003
aF919.91999999999996
aF920.15999999999997
aF920.41999999999996
aF920.50599999999997
aF920.51800000000003
aF921.09400000000005
aF921.10699999999997
aF921.11000000000001
aF921.11300000000006
aF921.34400000000005
aF921.37
aF921.48500000000001
aF921.5
aF921.77499999999998
aF921.78499999999997
aF921.81700000000001
aF921.96000000000004
aF922.25300000000004
aF922.34400000000005
aF922.46199999999999
aF922.61400000000003
aF922.83799999999997
aF922.84000000000003
aF923.13999999999999
aF923.14599999999996
aF923.21799999999996
aF923.22199999999998
aF923.28399999999999
aF923.28599999999994
aF923.43100000000004
aF923.51900000000001
aF923.553
aF923.55700000000002
aF923.59900000000005
aF923.60000000000002
aF923.86599999999999
aF924.01099999999997
aF924.11000000000001
aF924.98099999999999
aF924.98800000000006
aF925.02999999999997
aF925.06399999999996
aF925.64200000000005
aF925.67200000000003
aF925.76999999999998
aF925.84900000000005
aF925.92200000000003
aF926.41300000000001
aF926.42600000000004
aF926.56100000000004
aF926.58900000000006
aF926.68499999999995
aF926.697
aF926.69899999999996
aF926.73699999999997
aF926.73800000000006
aF926.86300000000006
aF926.92399999999998
aF927.19899999999996
aF927.202
aF927.44799999999998
aF927.74699999999996
aF928.09699999999998
aF928.13599999999997
aF928.15899999999999
aF928.36599999999999
aF928.37800000000004
aF929.20600000000002
aF929.64800000000002
aF929.77700000000004
aF929.78200000000004
aF930.06200000000001
aF930.09299999999996
aF930.10000000000002
aF930.10599999999999
aF930.19100000000003
aF930.20399999999995
aF930.25300000000004
aF930.25599999999997
aF930.48599999999999
aF930.53300000000002
aF930.90499999999997
aF931.12300000000005
aF931.46400000000006
aF931.54399999999998
aF931.97000000000003
aF932.55200000000002
aF932.56799999999998
aF932.60299999999995
aF932.60599999999999
aF932.654
aF932.87400000000002
aF932.995
aF933.47500000000002
aF933.50699999999995
aF933.91700000000003
aF934.02200000000005
aF934.33600000000001
aF934.38099999999997
aF934.39300000000003
aF934.55700000000002
aF934.577
aF934.60599999999999
aF934.649
aF934.65599999999995
aF934.66499999999996
aF934.94299999999998
aF935.19600000000003
aF935.26700000000005
aF935.82600000000002
aF935.87599999999998
aF935.96000000000004
aF936.01599999999996
aF936.01599999999996
aF936.06500000000005
aF936.22199999999998
aF936.22900000000004
aF936.28300000000002
aF936.28599999999994
aF936.524
aF936.54100000000005
aF936.62
aF936.68399999999997
aF936.87699999999995
aF936.88699999999994
aF937.12699999999995
aF937.28800000000001
aF937.49199999999996
aF937.49300000000005
aF937.69200000000001
aF937.69399999999996
aF937.90999999999997
aF938.32600000000002
aF938.33199999999999
aF938.495
aF938.59500000000003
aF938.60199999999998
aF938.70600000000002
aF938.96000000000004
aF939.01599999999996
aF939.024
aF939.42399999999998
aF939.60400000000004
aF939.61400000000003
aF939.68700000000001
aF939.69399999999996
aF939.904
aF939.90899999999999
aF939.99599999999998
aF940.03300000000002
aF940.14999999999998
aF940.48199999999997
aF940.49000000000001
aF940.72000000000003
aF940.72799999999995
aF941.31200000000001
aF941.31899999999996
aF941.59100000000001
aF941.71299999999997
aF941.72000000000003
aF941.84799999999996
aF941.98000000000002
aF942.21299999999997
aF942.65200000000004
aF942.72400000000005
aF942.72500000000002
aF942.75300000000004
aF943.04200000000003
aF943.06399999999996
aF943.06700000000001
aF943.33299999999997
aF943.52599999999995
aF943.54399999999998
aF943.72799999999995
aF943.73099999999999
aF943.73900000000003
aF943.74000000000001
aF943.803
aF943.83000000000004
aF943.83600000000001
aF943.84100000000001
aF943.84400000000005
aF943.976
aF944.00699999999995
aF944.13699999999994
aF944.19899999999996
aF944.22000000000003
aF944.50300000000004
aF944.81600000000003
aF944.84500000000003
aF944.86500000000001
aF944.91899999999998
aF944.92499999999995
aF945.08100000000002
aF945.08699999999999
aF945.12099999999998
aF945.24599999999998
aF945.32600000000002
aF945.34100000000001
aF945.35199999999998
aF945.45600000000002
aF945.46400000000006
aF945.59299999999996
aF945.66999999999996
aF945.67999999999995
aF945.74199999999996
aF945.74599999999998
aF945.87400000000002
aF946.14700000000005
aF946.24800000000005
aF946.40499999999997
aF946.78599999999994
aF946.78700000000003
aF946.83000000000004
aF946.84199999999998
aF946.94799999999998
aF946.95600000000002
aF947.197
aF947.298
aF947.42700000000002
aF947.50699999999995
aF947.50900000000001
aF947.75900000000001
aF947.84000000000003
aF947.91399999999999
aF947.91399999999999
aF948.11400000000003
aF948.11900000000003
aF948.19299999999998
aF948.44200000000001
aF948.44200000000001
aF948.47000000000003
aF948.62400000000002
aF948.74300000000005
aF948.745
aF948.822
aF949.06100000000004
aF949.06600000000003
aF949.54100000000005
aF949.54200000000003
aF949.55899999999997
aF949.73800000000006
aF949.74599999999998
aF949.81399999999996
aF950.05200000000002
aF950.05799999999999
aF950.072
aF950.21100000000001
aF950.27200000000005
aF950.28300000000002
aF950.65800000000002
aF950.69100000000003
aF950.697
aF950.90300000000002
aF951.08000000000004
aF951.08199999999999
aF951.13
aF951.20000000000005
aF951.27800000000002
aF951.30100000000004
aF951.46400000000006
aF951.87599999999998
aF951.94000000000005
aF951.98199999999997
aF952.00099999999998
aF952.13099999999997
aF952.13400000000001
aF952.20699999999999
aF952.21699999999998
aF952.25199999999995
aF952.26099999999997
aF952.26400000000001
aF952.38999999999999
aF952.50099999999998
aF952.55100000000004
aF952.55200000000002
aF952.56100000000004
aF952.78499999999997
aF952.94000000000005
aF952.95100000000002
aF953.12699999999995
aF953.577
aF953.68700000000001
aF953.92999999999995
aF953.94799999999998
aF954.04200000000003
aF954.04600000000005
aF954.05100000000004
aF954.27499999999998
aF954.36099999999999
aF954.36400000000003
aF954.36599999999999
aF954.48000000000002
aF954.96100000000001
aF954.96699999999998
aF954.99199999999996
aF955.19299999999998
aF955.21500000000003
aF955.226
aF955.39099999999996
aF955.53499999999997
aF956.02999999999997
aF956.10799999999995
aF956.11699999999996
aF956.12199999999996
aF956.16399999999999
aF956.21400000000006
aF956.21400000000006
aF956.28800000000001
aF956.30700000000002
aF956.32899999999995
aF956.51499999999999
aF956.76499999999999
aF956.96600000000001
aF957.30499999999995
aF957.35799999999995
aF957.62800000000004
aF957.63199999999995
aF957.64499999999998
aF957.66200000000003
aF957.77999999999997
aF957.78099999999995
aF957.90999999999997
aF958.12
aF958.21799999999996
aF958.23000000000002
aF958.23400000000004
aF958.27700000000004
aF958.28300000000002
aF958.37400000000002
aF958.37599999999998
aF958.38900000000001
aF958.39999999999998
aF958.71000000000004
aF958.71199999999999
aF958.84199999999998
aF959.03800000000001
aF959.10400000000004
aF959.50699999999995
aF959.62
aF959.678
aF959.75099999999998
aF959.83600000000001
aF960.16399999999999
aF960.16800000000001
aF960.36199999999997
aF960.66700000000003
aF960.85500000000002
aF960.87199999999996
aF961.03599999999994
aF961.226
aF961.23199999999997
aF961.42200000000003
aF961.43299999999999
aF961.46299999999997
aF961.46900000000005
aF962.22400000000005
aF962.26499999999999
aF962.27300000000002
aF962.35500000000002
aF962.399
aF962.70500000000004
aF962.73400000000004
aF962.73699999999997
aF962.83500000000004
aF962.84000000000003
aF962.93100000000004
aF962.96100000000001
aF963.09400000000005
aF963.096
aF963.23400000000004
aF963.24000000000001
aF963.31399999999996
aF963.33000000000004
aF964.13599999999997
aF964.13599999999997
aF964.47799999999995
aF964.72400000000005
aF964.73699999999997
aF964.94600000000003
aF965.23800000000006
aF965.30200000000002
aF965.596
aF965.60000000000002
aF965.60400000000004
aF965.65499999999997
aF966.11000000000001
aF966.12
aF966.16300000000001
aF966.19299999999998
aF966.19799999999998
aF966.21699999999998
aF966.57500000000005
aF966.60400000000004
aF966.71100000000001
aF966.94799999999998
aF967.17499999999995
aF967.31799999999998
aF967.58399999999995
aF967.58399999999995
aF967.66800000000001
aF967.71000000000004
aF968.00900000000001
aF968.10400000000004
aF968.303
aF968.31799999999998
aF968.34199999999998
aF968.47400000000005
aF968.48800000000006
aF968.59900000000005
aF968.60000000000002
aF969.18399999999997
aF969.24000000000001
aF969.24599999999998
aF969.404
aF969.41600000000005
aF969.57399999999996
aF969.58600000000001
aF969.60000000000002
aF970.255
aF970.58900000000006
aF970.91099999999994
aF971.42700000000002
aF971.43499999999995
aF971.47000000000003
aF971.48099999999999
aF971.58299999999997
aF972.05700000000002
aF972.19799999999998
aF972.52499999999998
aF972.52800000000002
aF972.99400000000003
aF973.09500000000003
aF973.12699999999995
aF973.32000000000005
aF973.82600000000002
aF974.07299999999998
aF974.22900000000004
aF974.46600000000001
aF974.471
aF974.52499999999998
aF974.64099999999996
aF974.64599999999996
aF974.697
aF974.72000000000003
aF974.87599999999998
aF974.93799999999999
aF975.13900000000001
aF975.197
aF975.38699999999994
aF975.452
aF975.85000000000002
aF976.09000000000003
aF976.38999999999999
aF976.42499999999995
aF976.81600000000003
aF976.822
aF976.98500000000001
aF977.048
aF977.13099999999997
aF977.21900000000005
aF977.245
aF977.24900000000002
aF977.25
aF977.25400000000002
aF977.30999999999995
aF977.97799999999995
aF978.154
aF978.59100000000001
aF978.66200000000003
aF978.66600000000005
aF979.10699999999997
aF979.11599999999999
aF979.16999999999996
aF979.197
aF979.35400000000004
aF979.36300000000006
aF979.70799999999997
aF979.80600000000004
aF979.80799999999999
aF980.09000000000003
aF980.13599999999997
aF980.173
aF980.42200000000003
aF980.476
aF980.64300000000003
aF980.66200000000003
aF981.00400000000002
aF981.12300000000005
aF981.20899999999995
aF981.255
aF981.54600000000005
aF981.553
aF981.57899999999995
aF981.84400000000005
aF981.98900000000003
aF982.428
aF982.43299999999999
aF982.62199999999996
aF983.096
aF983.14599999999996
aF983.298
aF983.30499999999995
aF983.34799999999996
aF984.24000000000001
aF985.01400000000001
aF985.40899999999999
aF985.64499999999998
aF985.654
aF985.85400000000004
aF986.05999999999995
aF986.06799999999998
aF986.72500000000002
aF986.78300000000002
aF986.93399999999997
aF986.94100000000003
aF987.13699999999994
aF987.36199999999997
aF987.57899999999995
aF987.59400000000005
aF987.67399999999998
aF987.79300000000001
aF987.798
aF987.93100000000004
aF988.21299999999997
aF988.50900000000001
aF988.74800000000005
aF989.42499999999995
aF989.46699999999998
aF989.64499999999998
aF989.678
aF990.14499999999998
aF990.14599999999996
aF990.22900000000004
aF990.29399999999998
aF990.29999999999995
aF990.62599999999998
aF990.67999999999995
aF991.096
aF991.09699999999998
aF991.29600000000005
aF991.29999999999995
aF991.32500000000005
aF991.63599999999997
aF991.64800000000002
aF991.64999999999998
aF991.89599999999996
aF992.05100000000004
aF992.27999999999997
aF992.41300000000001
aF992.50800000000004
aF992.60599999999999
aF992.81299999999999
aF992.82000000000005
aF993.12800000000004
aF993.28399999999999
aF993.77200000000005
aF993.82299999999998
aF993.89800000000002
aF994.00099999999998
aF994.42999999999995
aF994.60900000000004
aF994.61199999999997
aF994.63199999999995
aF994.63199999999995
aF994.86599999999999
aF994.87099999999998
aF995.06600000000003
aF995.22000000000003
aF995.24400000000003
aF995.25199999999995
aF995.33299999999997
aF995.36199999999997
aF995.40599999999995
aF995.44799999999998
aF995.79700000000003
aF996.13400000000001
aF996.14499999999998
aF996.14599999999996
aF996.23099999999999
aF996.23299999999995
aF996.33000000000004
aF996.476
aF996.52800000000002
aF996.58900000000006
aF996.75099999999998
aF996.76099999999997
aF996.80700000000002
aF996.98599999999999
aF997.79200000000003
aF997.82000000000005
aF997.83399999999995
aF998.09799999999996
aF998.09799999999996
aF998.16600000000005
aF998.26499999999999
aF998.27800000000002
aF998.30799999999999
aF998.38499999999999
aF998.40599999999995
aF998.51800000000003
aF998.91200000000003
aF999.06299999999999
aF999.38699999999994
aF999.71600000000001
aF999.71799999999996
aF999.73299999999995
aF999.94799999999998
aF1000.103
aF1000.11
aF1000.14
aF1000.196
aF1000.202
aF1000.215
aF1000.355
aF1000.598
aF1000.9880000000001
aF1001.158
aF1001.168
aF1001.318
aF1001.455
aF1001.741
aF1001.797
aF1001.806
aF1001.9349999999999
aF1002.1079999999999
aF1002.138
aF1002.1420000000001
aF1002.559
aF1002.559
aF1002.712
aF1002.753
aF1002.981
aF1002.984
aF1003.167
aF1003.398
aF1003.404
aF1003.407
aF1003.8680000000001
aF1003.976
aF1004.0119999999999
aF1004.304
aF1004.407
aF1004.718
aF1004.737
aF1005.194
aF1005.2190000000001
aF1005.398
aF1005.403
aF1005.6849999999999
aF1005.89
aF1006.053
aF1006.074
aF1006.654
aF1006.869
aF1006.907
aF1007.172
aF1007.413
aF1007.676
aF1007.684
aF1007.71
aF1007.739
aF1007.866
aF1007.903
aF1008.074
aF1008.598
aF1008.609
aF1008.864
aF1009.075
aF1009.2859999999999
aF1009.369
aF1009.423
aF1009.425
aF1009.515
aF1009.995
aF1010.298
aF1010.509
aF1010.918
aF1010.99
aF1011.184
aF1011.1849999999999
aF1011.1950000000001
aF1011.294
aF1011.343
aF1011.351
aF1011.388
aF1011.501
aF1011.513
aF1011.515
aF1011.898
aF1012.069
aF1012.444
aF1012.46
aF1012.475
aF1012.482
aF1012.549
aF1012.55
aF1012.551
aF1012.703
aF1012.704
aF1012.801
aF1012.803
aF1012.912
aF1013.16
aF1013.165
aF1013.23
aF1013.377
aF1013.383
aF1013.41
aF1013.6369999999999
aF1013.7190000000001
aF1014.4299999999999
aF1014.434
aF1014.574
aF1014.588
aF1014.643
aF1014.9160000000001
aF1015.049
aF1015.255
aF1015.489
aF1015.49
aF1015.634
aF1015.928
aF1016.033
aF1016.2859999999999
aF1017.25
aF1017.372
aF1017.562
aF1018.0119999999999
aF1018.014
aF1018.237
aF1018.2380000000001
aF1018.253
aF1019.473
aF1019.538
aF1019.915
aF1020.154
aF1020.235
aF1020.58
aF1020.912
aF1021.052
aF1021.393
aF1021.575
aF1021.583
aF1021.941
aF1021.941
aF1021.962
aF1021.9640000000001
aF1022.074
aF1022.163
aF1022.282
aF1022.296
aF1022.408
aF1022.415
aF1022.652
aF1022.6799999999999
aF1022.694
aF1023.018
aF1023.297
aF1023.5
aF1023.755
aF1024.26
aF1024.4649999999999
aF1024.4659999999999
aF1024.6980000000001
aF1024.702
aF1024.768
aF1024.7860000000001
aF1025.047
aF1025.059
aF1025.4960000000001
aF1025.9939999999999
aF1026.0160000000001
aF1026.462
aF1026.4760000000001
aF1027.412
aF1027.412
aF1027.422
aF1027.4380000000001
aF1027.471
aF1027.568
aF1027.626
aF1027.8620000000001
aF1027.9200000000001
aF1027.952
aF1028.0419999999999
aF1028.0599999999999
aF1028.1289999999999
aF1028.1400000000001
aF1028.2619999999999
aF1028.4839999999999
aF1028.5039999999999
aF1028.508
aF1028.5940000000001
aF1028.912
aF1028.9490000000001
aF1029.28
aF1029.7940000000001
aF1029.799
aF1029.8889999999999
aF1030.1700000000001
aF1030.913
aF1031.9200000000001
aF1031.923
aF1032.008
aF1032.1769999999999
aF1032.231
aF1032.241
aF1032.3810000000001
aF1032.383
aF1032.7660000000001
aF1033.2370000000001
aF1033.25
aF1033.3230000000001
aF1033.396
aF1033.7370000000001
aF1033.942
aF1033.9480000000001
aF1033.9580000000001
aF1034.076
aF1034.0840000000001
aF1034.1969999999999
aF1034.5419999999999
aF1034.5440000000001
aF1034.546
aF1034.8920000000001
aF1034.9659999999999
aF1035.5609999999999
aF1035.5840000000001
aF1035.643
aF1035.644
aF1035.864
aF1035.9559999999999
aF1036.1959999999999
aF1036.239
aF1036.2470000000001
aF1036.52
aF1036.653
aF1036.6669999999999
aF1037.162
aF1037.1679999999999
aF1037.5360000000001
aF1037.616
aF1037.6590000000001
aF1038.028
aF1038.048
aF1038.136
aF1038.204
aF1038.3140000000001
aF1038.46
aF1038.4649999999999
aF1038.4949999999999
aF1038.5630000000001
aF1038.662
aF1038.749
aF1039.1220000000001
aF1039.1320000000001
aF1039.154
aF1039.6420000000001
aF1039.7940000000001
aF1040.625
aF1040.665
aF1041.0039999999999
aF1041.037
aF1041.0419999999999
aF1041.2719999999999
aF1041.2819999999999
aF1041.3
aF1041.4059999999999
aF1041.4770000000001
aF1041.5599999999999
aF1041.577
aF1041.845
aF1041.954
aF1042.8230000000001
aF1042.9639999999999
aF1042.9680000000001
aF1043.0150000000001
aF1043.018
aF1043.6279999999999
aF1043.8499999999999
aF1043.854
aF1043.864
aF1043.8689999999999
aF1043.896
aF1044.27
aF1044.2940000000001
aF1044.3140000000001
aF1044.7360000000001
aF1044.873
aF1044.9300000000001
aF1045.221
aF1045.223
aF1045.229
aF1045.248
aF1045.489
aF1045.71
aF1045.78
aF1046.038
aF1046.04
aF1046.1610000000001
aF1046.498
aF1047.6679999999999
aF1047.7280000000001
aF1047.7339999999999
aF1047.8430000000001
aF1047.876
aF1049.1769999999999
aF1049.364
aF1049.366
aF1049.4469999999999
aF1049.4739999999999
aF1049.52
aF1050.8340000000001
aF1050.922
aF1051.048
aF1051.058
aF1051.0599999999999
aF1051.184
aF1051.1890000000001
aF1051.347
aF1051.4079999999999
aF1051.4179999999999
aF1051.454
aF1051.4590000000001
aF1051.588
aF1051.596
aF1051.6179999999999
aF1051.7760000000001
aF1051.807
aF1051.913
aF1051.9259999999999
aF1052.509
aF1052.6410000000001
aF1052.7339999999999
aF1052.7349999999999
aF1052.9169999999999
aF1053.123
aF1053.125
aF1053.3389999999999
aF1053.434
aF1053.434
aF1054.2470000000001
aF1054.4079999999999
aF1054.4590000000001
aF1054.4639999999999
aF1054.9280000000001
aF1054.992
aF1055.104
aF1055.346
aF1055.6489999999999
aF1055.6980000000001
aF1056.1420000000001
aF1056.192
aF1056.1959999999999
aF1056.201
aF1056.202
aF1056.74
aF1056.902
aF1056.98
aF1057.046
aF1057.204
aF1057.7159999999999
aF1057.8219999999999
aF1057.8299999999999
aF1057.951
aF1058.0219999999999
aF1058.03
aF1058.1559999999999
aF1058.4770000000001
aF1059.3689999999999
aF1059.5239999999999
aF1059.5709999999999
aF1059.5730000000001
aF1059.5909999999999
aF1059.6990000000001
aF1059.7080000000001
aF1059.817
aF1059.9749999999999
aF1060.0329999999999
aF1060.2139999999999
aF1060.2739999999999
aF1060.2750000000001
aF1060.394
aF1060.569
aF1060.703
aF1060.7909999999999
aF1060.9960000000001
aF1061.0039999999999
aF1061.9000000000001
aF1062.258
aF1062.2639999999999
aF1062.346
aF1062.3699999999999
aF1062.375
aF1062.3820000000001
aF1062.48
aF1062.634
aF1062.7049999999999
aF1062.7329999999999
aF1062.816
aF1063.0519999999999
aF1063.4549999999999
aF1063.6089999999999
aF1063.6990000000001
aF1063.8420000000001
aF1064.269
aF1064.2739999999999
aF1064.606
aF1064.6130000000001
aF1064.721
aF1064.915
aF1065.085
aF1065.1320000000001
aF1065.1500000000001
aF1065.1659999999999
aF1065.6179999999999
aF1065.664
aF1065.672
aF1065.9949999999999
aF1066.058
aF1066.2539999999999
aF1066.8130000000001
aF1066.972
aF1067.0129999999999
aF1067.087
aF1067.2059999999999
aF1067.213
aF1067.2470000000001
aF1067.26
aF1067.298
aF1067.3340000000001
aF1067.5509999999999
aF1067.556
aF1067.748
aF1067.749
aF1067.8630000000001
aF1067.8679999999999
aF1067.925
aF1068.5219999999999
aF1068.5250000000001
aF1068.577
aF1068.579
aF1069.454
aF1069.694
aF1069.7239999999999
aF1070.248
aF1070.2619999999999
aF1070.3199999999999
aF1070.3869999999999
aF1070.7909999999999
aF1070.865
aF1071.0039999999999
aF1071.058
aF1071.0599999999999
aF1071.6790000000001
aF1072.0119999999999
aF1072.0150000000001
aF1072.163
aF1072.2380000000001
aF1072.2739999999999
aF1072.2860000000001
aF1072.3779999999999
aF1072.5139999999999
aF1072.6389999999999
aF1072.6900000000001
aF1072.7149999999999
aF1072.944
aF1072.97
aF1073.1120000000001
aF1073.366
aF1073.693
aF1073.7460000000001
aF1073.8409999999999
aF1073.8409999999999
aF1074.0519999999999
aF1074.4449999999999
aF1074.452
aF1074.453
aF1074.836
aF1074.9159999999999
aF1075.1420000000001
aF1075.193
aF1075.8800000000001
aF1075.9079999999999
aF1075.912
aF1076.056
aF1076.2660000000001
aF1076.328
aF1076.46
aF1076.462
aF1076.5809999999999
aF1076.595
aF1076.6199999999999
aF1076.623
aF1076.682
aF1076.845
aF1076.864
aF1076.941
aF1076.9449999999999
aF1077.7760000000001
aF1077.836
aF1077.8579999999999
aF1078.0060000000001
aF1078.011
aF1078.0129999999999
aF1078.0409999999999
aF1078.0550000000001
aF1078.068
aF1078.162
aF1078.174
aF1078.1859999999999
aF1078.4749999999999
aF1078.5039999999999
aF1078.587
aF1078.5989999999999
aF1078.845
aF1078.8920000000001
aF1079.183
aF1079.422
aF1079.443
aF1079.444
aF1079.4590000000001
aF1079.5719999999999
aF1080.2239999999999
aF1080.2249999999999
aF1080.2909999999999
aF1080.421
aF1080.5340000000001
aF1080.5429999999999
aF1080.577
aF1080.5889999999999
aF1080.904
aF1080.9069999999999
aF1081.4079999999999
aF1081.4079999999999
aF1081.9359999999999
aF1081.9400000000001
aF1081.9469999999999
aF1081.96
aF1082.202
aF1082.2090000000001
aF1082.329
aF1082.479
aF1082.6700000000001
aF1082.729
aF1082.7380000000001
aF1083.066
aF1083.096
aF1083.184
aF1083.1880000000001
aF1083.5360000000001
aF1083.8299999999999
aF1083.998
aF1084.1500000000001
aF1084.1500000000001
aF1084.3820000000001
aF1084.421
aF1084.431
aF1084.451
aF1084.4690000000001
aF1084.4829999999999
aF1084.499
aF1084.9000000000001
aF1084.902
aF1085.0820000000001
aF1085.1099999999999
aF1085.626
aF1085.626
aF1085.7719999999999
aF1086.1110000000001
aF1086.25
aF1086.2639999999999
aF1086.3240000000001
aF1086.546
aF1086.741
aF1086.7840000000001
aF1086.7860000000001
aF1086.8099999999999
aF1087.557
aF1087.655
aF1087.6659999999999
aF1087.857
aF1087.9580000000001
aF1087.98
aF1088.1110000000001
aF1088.127
aF1088.248
aF1088.4380000000001
aF1088.5419999999999
aF1088.575
aF1088.952
aF1088.97
aF1089.125
aF1089.4010000000001
aF1089.402
aF1089.76
aF1089.8199999999999
aF1089.8240000000001
aF1089.8910000000001
aF1090.2149999999999
aF1090.771
aF1091.2
aF1091.2180000000001
aF1091.5060000000001
aF1091.7059999999999
aF1091.923
aF1092.328
aF1092.337
aF1092.482
aF1092.598
aF1092.673
aF1093.1379999999999
aF1093.144
aF1093.481
aF1093.748
aF1093.8140000000001
aF1093.8330000000001
aF1093.9290000000001
aF1094.1859999999999
aF1094.1980000000001
aF1094.2329999999999
aF1094.4749999999999
aF1094.588
aF1094.5889999999999
aF1094.616
aF1094.6199999999999
aF1094.789
aF1094.796
aF1095.252
aF1095.2560000000001
aF1095.2619999999999
aF1095.3440000000001
aF1095.345
aF1095.453
aF1095.8199999999999
aF1095.8219999999999
aF1096.1089999999999
aF1096.1420000000001
aF1096.414
aF1096.549
aF1096.6400000000001
aF1096.8499999999999
aF1097.384
aF1097.3879999999999
aF1097.6420000000001
aF1097.646
aF1097.8579999999999
aF1098.25
aF1098.3789999999999
aF1098.433
aF1098.7639999999999
aF1098.7660000000001
aF1098.9190000000001
aF1099.038
aF1099.1300000000001
aF1099.1320000000001
aF1099.2139999999999
aF1100.1199999999999
aF1100.462
aF1100.556
aF1100.557
aF1100.681
aF1100.693
aF1100.6949999999999
aF1100.6959999999999
aF1100.7080000000001
aF1100.8140000000001
aF1100.9110000000001
aF1101.5229999999999
aF1101.5340000000001
aF1101.925
aF1102.1600000000001
aF1102.1780000000001
aF1102.6300000000001
aF1102.972
aF1103.0519999999999
aF1103.3789999999999
aF1103.403
aF1103.4739999999999
aF1103.6120000000001
aF1103.646
aF1103.8530000000001
aF1104.069
aF1104.7850000000001
aF1104.7940000000001
aF1104.8309999999999
aF1104.9839999999999
aF1105.0650000000001
aF1105.066
aF1105.066
aF1105.143
aF1105.1610000000001
aF1105.165
aF1105.174
aF1105.355
aF1105.394
aF1105.4059999999999
aF1105.9010000000001
aF1105.953
aF1105.954
aF1106.046
aF1106.0509999999999
aF1106.059
aF1106.076
aF1106.1479999999999
aF1106.28
aF1107.3620000000001
aF1107.4359999999999
aF1107.8409999999999
aF1107.8620000000001
aF1107.9179999999999
aF1108.1479999999999
aF1108.154
aF1108.4570000000001
aF1108.508
aF1108.8900000000001
aF1108.9739999999999
aF1109.221
aF1109.4380000000001
aF1109.973
aF1111.1769999999999
aF1111.4659999999999
aF1111.5360000000001
aF1111.5450000000001
aF1111.568
aF1111.7570000000001
aF1112.085
aF1112.2180000000001
aF1112.2539999999999
aF1112.962
aF1113.021
aF1113.1130000000001
aF1113.384
aF1113.412
aF1113.4949999999999
aF1113.5219999999999
aF1113.53
aF1114.155
aF1114.2460000000001
aF1114.2909999999999
aF1114.8720000000001
aF1115.114
aF1115.164
aF1115.23
aF1115.2539999999999
aF1115.261
aF1115.5889999999999
aF1115.6289999999999
aF1115.663
aF1115.7760000000001
aF1115.9280000000001
aF1115.9369999999999
aF1116.0039999999999
aF1116.0170000000001
aF1116.1289999999999
aF1116.248
aF1116.3779999999999
aF1116.4159999999999
aF1116.635
aF1116.6369999999999
aF1116.758
aF1116.989
aF1117.4780000000001
aF1117.548
aF1117.636
aF1117.8320000000001
aF1118.5650000000001
aF1118.6510000000001
aF1118.7850000000001
aF1118.866
aF1118.876
aF1119.0740000000001
aF1119.2660000000001
aF1119.7070000000001
aF1119.7190000000001
aF1119.7280000000001
aF1120.0609999999999
aF1120.0640000000001
aF1120.1500000000001
aF1120.2270000000001
aF1120.3689999999999
aF1120.9659999999999
aF1120.9849999999999
aF1120.992
aF1121.3199999999999
aF1121.6869999999999
aF1121.732
aF1122.1210000000001
aF1122.134
aF1122.518
aF1122.5809999999999
aF1122.586
aF1123.3599999999999
aF1123.366
aF1123.3710000000001
aF1123.8810000000001
aF1123.952
aF1123.9580000000001
aF1123.96
aF1123.991
aF1124.0239999999999
aF1124.0309999999999
aF1124.2750000000001
aF1124.326
aF1124.8119999999999
aF1124.9469999999999
aF1125.056
aF1125.0630000000001
aF1125.1199999999999
aF1125.268
aF1125.2860000000001
aF1125.3510000000001
aF1125.433
aF1125.9839999999999
aF1126.0999999999999
aF1126.2650000000001
aF1126.5409999999999
aF1126.547
aF1126.549
aF1126.6010000000001
aF1126.768
aF1126.8399999999999
aF1127.116
aF1127.182
aF1127.191
aF1127.309
aF1127.432
aF1127.51
aF1128.154
aF1128.1590000000001
aF1128.2329999999999
aF1128.9179999999999
aF1128.9200000000001
aF1128.9659999999999
aF1128.9680000000001
aF1129.9169999999999
aF1130.51
aF1130.6300000000001
aF1130.7349999999999
aF1131.078
aF1131.1079999999999
aF1131.691
aF1131.7560000000001
aF1132.105
aF1132.1579999999999
aF1132.3340000000001
aF1132.396
aF1132.45
aF1132.6880000000001
aF1132.749
aF1132.924
aF1133.1020000000001
aF1133.1469999999999
aF1133.2940000000001
aF1133.3019999999999
aF1133.829
aF1133.8910000000001
aF1134.0250000000001
aF1134.0260000000001
aF1134.8979999999999
aF1135.1559999999999
aF1135.3119999999999
aF1135.3130000000001
aF1135.3499999999999
aF1135.424
aF1135.5709999999999
aF1135.732
aF1135.7339999999999
aF1135.7860000000001
aF1135.8009999999999
aF1136.23
aF1136.2339999999999
aF1136.682
aF1136.8109999999999
aF1136.8119999999999
aF1137.174
aF1137.623
aF1137.6279999999999
aF1138.2460000000001
aF1138.548
aF1138.595
aF1138.72
aF1138.972
aF1138.972
aF1138.979
aF1139.0029999999999
aF1139.0060000000001
aF1139.154
aF1139.239
aF1139.462
aF1139.7
aF1139.7
aF1139.883
aF1140.146
aF1140.2360000000001
aF1140.4780000000001
aF1140.4849999999999
aF1140.626
aF1140.8979999999999
aF1140.902
aF1141.0650000000001
aF1141.0940000000001
aF1142.3209999999999
aF1142.6700000000001
aF1142.8109999999999
aF1142.816
aF1143.432
aF1143.482
aF1143.5
aF1143.5740000000001
aF1143.6300000000001
aF1143.8420000000001
aF1143.8520000000001
aF1143.943
aF1144.146
aF1144.3150000000001
aF1144.3240000000001
aF1144.348
aF1144.404
aF1144.549
aF1144.9159999999999
aF1145.242
aF1145.2429999999999
aF1145.248
aF1145.4490000000001
aF1145.566
aF1145.568
aF1145.693
aF1145.7449999999999
aF1145.9059999999999
aF1145.9159999999999
aF1146.3900000000001
aF1146.4069999999999
aF1146.5809999999999
aF1146.5830000000001
aF1147.037
aF1147.444
aF1147.7339999999999
aF1147.74
aF1147.78
aF1148.221
aF1148.2449999999999
aF1148.4400000000001
aF1148.8340000000001
aF1148.9000000000001
aF1148.903
aF1148.9090000000001
aF1149.1559999999999
aF1149.175
aF1149.3889999999999
aF1149.6859999999999
aF1149.952
aF1150.05
aF1150.0930000000001
aF1150.1800000000001
aF1150.181
aF1150.2329999999999
aF1150.2719999999999
aF1150.28
aF1150.325
aF1150.498
aF1150.5
aF1150.5519999999999
aF1150.575
aF1150.9939999999999
aF1151.1089999999999
aF1151.2650000000001
aF1151.3389999999999
aF1151.377
aF1151.3979999999999
aF1151.452
aF1151.463
aF1151.653
aF1151.6780000000001
aF1151.9380000000001
aF1152.1959999999999
aF1152.1959999999999
aF1152.2449999999999
aF1152.444
aF1152.462
aF1152.472
aF1152.5139999999999
aF1152.5840000000001
aF1152.6199999999999
aF1152.6590000000001
aF1152.848
aF1152.998
aF1153.009
aF1153.1099999999999
aF1153.229
aF1153.3989999999999
aF1153.6010000000001
aF1153.8579999999999
aF1153.8689999999999
aF1153.893
aF1154.395
aF1154.5360000000001
aF1154.5740000000001
aF1154.982
aF1155.125
aF1155.1379999999999
aF1155.1869999999999
aF1155.241
aF1155.2650000000001
aF1155.3499999999999
aF1155.5640000000001
aF1155.5740000000001
aF1155.6320000000001
aF1155.8530000000001
aF1155.854
aF1156.066
aF1156.827
aF1156.8789999999999
aF1157.038
aF1157.086
aF1157.087
aF1157.2719999999999
aF1157.2819999999999
aF1157.3610000000001
aF1157.7629999999999
aF1157.8589999999999
aF1157.998
aF1158.1379999999999
aF1158.6220000000001
aF1158.6790000000001
aF1158.8630000000001
aF1158.874
aF1158.896
aF1159.1949999999999
aF1159.2339999999999
aF1159.242
aF1159.2819999999999
aF1159.356
aF1159.3699999999999
aF1159.7170000000001
aF1159.8199999999999
aF1159.874
aF1159.875
aF1159.8889999999999
aF1160.6320000000001
aF1160.6420000000001
aF1160.6790000000001
aF1160.934
aF1160.981
aF1161.336
aF1161.364
aF1161.423
aF1161.7139999999999
aF1161.999
aF1162.2639999999999
aF1162.3420000000001
aF1162.508
aF1162.51
aF1162.5940000000001
aF1162.692
aF1162.9200000000001
aF1162.9570000000001
aF1163.1420000000001
aF1163.203
aF1163.204
aF1163.3920000000001
aF1163.8610000000001
aF1163.8789999999999
aF1164.115
aF1164.1379999999999
aF1164.232
aF1164.2380000000001
aF1164.4760000000001
aF1164.4839999999999
aF1164.586
aF1164.961
aF1164.9739999999999
aF1165.1780000000001
aF1165.646
aF1165.664
aF1166.1690000000001
aF1166.4179999999999
aF1166.432
aF1166.645
aF1166.6469999999999
aF1166.885
aF1166.931
aF1167.7059999999999
aF1168.0809999999999
aF1168.5329999999999
aF1168.7159999999999
aF1168.9680000000001
aF1169.46
aF1169.5129999999999
aF1169.8969999999999
aF1169.9059999999999
aF1169.9090000000001
aF1169.9490000000001
aF1170.4649999999999
aF1171.011
aF1171.03
aF1171.2840000000001
aF1171.318
aF1172.0039999999999
aF1172.3019999999999
aF1172.3050000000001
aF1172.6220000000001
aF1172.806
aF1173.9490000000001
aF1174.135
aF1174.143
aF1174.4000000000001
aF1174.6559999999999
aF1175.047
aF1176.3409999999999
aF1176.3720000000001
aF1176.5540000000001
aF1176.653
aF1177.2360000000001
aF1177.24
aF1177.3699999999999
aF1177.3820000000001
aF1177.412
aF1178.0709999999999
aF1178.6659999999999
aF1178.9079999999999
aF1179.028
aF1179.4839999999999
aF1179.8699999999999
aF1179.904
aF1179.9760000000001
aF1179.9949999999999
aF1180.049
aF1180.05
aF1180.1900000000001
aF1180.8920000000001
aF1180.933
aF1181.0840000000001
aF1181.432
aF1181.8499999999999
aF1181.8520000000001
aF1181.9010000000001
aF1181.903
aF1182.0319999999999
aF1182.1780000000001
aF1182.2180000000001
aF1183.1389999999999
aF1183.3050000000001
aF1183.3889999999999
aF1183.538
aF1183.5920000000001
aF1183.5940000000001
aF1183.8299999999999
aF1183.8710000000001
aF1184.1369999999999
aF1184.1469999999999
aF1184.163
aF1184.4860000000001
aF1184.4880000000001
aF1184.502
aF1184.8230000000001
aF1184.846
aF1185.106
aF1185.1099999999999
aF1185.3299999999999
aF1185.393
aF1185.415
aF1185.6199999999999
aF1185.626
aF1185.903
aF1186.3240000000001
aF1186.431
aF1186.674
aF1187.105
aF1187.3420000000001
aF1187.3520000000001
aF1187.386
aF1187.942
aF1187.9870000000001
aF1188.2460000000001
aF1188.588
aF1188.7550000000001
aF1188.9169999999999
aF1189.2159999999999
aF1189.229
aF1189.2329999999999
aF1189.54
aF1189.5640000000001
aF1190.126
aF1190.1500000000001
aF1190.345
aF1190.7190000000001
aF1190.9760000000001
aF1191.154
aF1191.7929999999999
aF1191.808
aF1191.816
aF1191.894
aF1191.902
aF1192.1420000000001
aF1192.5309999999999
aF1192.75
aF1193.202
aF1193.2360000000001
aF1193.2370000000001
aF1193.4570000000001
aF1193.4880000000001
aF1193.501
aF1193.5060000000001
aF1193.5350000000001
aF1193.539
aF1193.8099999999999
aF1193.826
aF1193.9300000000001
aF1194.182
aF1194.501
aF1194.5319999999999
aF1194.7059999999999
aF1194.7070000000001
aF1195.1610000000001
aF1195.3240000000001
aF1195.4780000000001
aF1195.5820000000001
aF1195.9490000000001
aF1195.979
aF1196.0
aF1196.1859999999999
aF1196.335
aF1196.9179999999999
aF1197.749
aF1197.7719999999999
aF1197.7840000000001
aF1197.8320000000001
aF1197.848
aF1198.106
aF1198.3
aF1198.502
aF1198.655
aF1198.7059999999999
aF1198.9179999999999
aF1199.971
aF1200.0989999999999
aF1200.4659999999999
aF1200.5719999999999
aF1200.5930000000001
aF1200.5930000000001
aF1200.6400000000001
aF1200.6569999999999
aF1200.836
aF1200.8409999999999
aF1201.0229999999999
aF1201.097
aF1201.135
aF1201.1489999999999
aF1201.162
aF1201.3699999999999
aF1201.4649999999999
aF1201.5329999999999
aF1201.5619999999999
aF1201.5999999999999
aF1201.6400000000001
aF1201.818
aF1202.2
aF1202.374
aF1202.3810000000001
aF1202.4780000000001
aF1202.6590000000001
aF1202.672
aF1202.673
aF1202.703
aF1202.789
aF1202.789
aF1202.9559999999999
aF1203.692
aF1203.732
aF1203.7429999999999
aF1203.95
aF1203.9559999999999
aF1204.336
aF1204.6030000000001
aF1204.71
aF1204.8920000000001
aF1204.9159999999999
aF1204.944
aF1204.952
aF1204.953
aF1205.019
aF1205.1610000000001
aF1205.2739999999999
aF1205.277
aF1205.7719999999999
aF1205.7729999999999
aF1205.9290000000001
aF1206.307
aF1206.509
aF1206.5229999999999
aF1206.529
aF1206.5360000000001
aF1207.184
aF1207.6020000000001
aF1208.204
aF1208.213
aF1208.299
aF1208.319
aF1208.4480000000001
aF1208.454
aF1208.547
aF1208.8910000000001
aF1209.0599999999999
aF1209.068
aF1209.1120000000001
aF1210.375
aF1210.4780000000001
aF1210.481
aF1210.825
aF1210.9949999999999
aF1211.0350000000001
aF1211.04
aF1211.0740000000001
aF1211.8150000000001
aF1212.0820000000001
aF1212.248
aF1213.001
aF1213.0119999999999
aF1213.0799999999999
aF1213.0820000000001
aF1213.182
aF1213.383
aF1213.394
aF1213.415
aF1213.6079999999999
aF1213.6110000000001
aF1213.6279999999999
aF1213.6679999999999
aF1214.346
aF1214.559
aF1214.617
aF1214.953
aF1214.9559999999999
aF1214.9570000000001
aF1215.076
aF1215.2090000000001
aF1215.222
aF1215.223
aF1216.0139999999999
aF1216.0260000000001
aF1216.095
aF1216.1099999999999
aF1216.1120000000001
aF1216.3420000000001
aF1216.3440000000001
aF1216.3599999999999
aF1216.386
aF1217.204
aF1217.329
aF1217.5119999999999
aF1217.5340000000001
aF1217.643
aF1217.7
aF1217.712
aF1217.7470000000001
aF1217.7760000000001
aF1218.2
aF1218.3240000000001
aF1218.4100000000001
aF1218.4690000000001
aF1218.471
aF1218.866
aF1218.931
aF1218.98
aF1219.193
aF1219.4079999999999
aF1219.413
aF1219.4760000000001
aF1219.7819999999999
aF1219.8050000000001
aF1219.9159999999999
aF1220.4870000000001
aF1220.4939999999999
aF1220.616
aF1221.425
aF1221.6410000000001
aF1221.855
aF1221.855
aF1222.0889999999999
aF1222.2339999999999
aF1222.306
aF1222.3209999999999
aF1222.796
aF1223.0740000000001
aF1223.0940000000001
aF1223.098
aF1223.787
aF1223.9860000000001
aF1224.019
aF1224.019
aF1224.329
aF1224.335
aF1224.6300000000001
aF1224.6469999999999
aF1225.175
aF1225.1880000000001
aF1225.45
aF1225.46
aF1226.0260000000001
aF1226.2619999999999
aF1226.2860000000001
aF1226.4949999999999
aF1226.829
aF1226.8800000000001
aF1226.8920000000001
aF1227.2660000000001
aF1227.432
aF1227.8440000000001
aF1228.385
aF1228.443
aF1228.6210000000001
aF1228.7619999999999
aF1228.9580000000001
aF1228.962
aF1229.414
aF1229.415
aF1229.4960000000001
aF1229.8499999999999
aF1230.1900000000001
aF1230.3240000000001
aF1230.3420000000001
aF1230.3879999999999
aF1230.722
aF1230.7629999999999
aF1231.0319999999999
aF1231.04
aF1231.1420000000001
aF1231.152
aF1231.335
aF1231.904
aF1231.914
aF1231.9159999999999
aF1231.922
aF1232.758
aF1232.837
aF1232.8389999999999
aF1233.414
aF1233.423
aF1233.45
aF1233.482
aF1233.998
aF1234.252
aF1234.2639999999999
aF1234.7629999999999
aF1234.8699999999999
aF1234.9390000000001
aF1235.02
aF1235.02
aF1235.1379999999999
aF1235.481
aF1235.586
aF1235.8510000000001
aF1235.854
aF1235.9190000000001
aF1236.5519999999999
aF1236.5540000000001
aF1236.7049999999999
aF1236.742
aF1237.02
aF1237.0319999999999
aF1237.431
aF1237.5920000000001
aF1237.5920000000001
aF1237.6369999999999
aF1237.6600000000001
aF1238.268
aF1238.28
aF1238.2809999999999
aF1238.404
aF1238.4659999999999
aF1238.521
aF1238.962
aF1239.0160000000001
aF1239.653
aF1239.732
aF1239.8620000000001
aF1239.9359999999999
aF1240.019
aF1240.239
aF1240.251
aF1240.556
aF1240.5899999999999
aF1240.6210000000001
aF1240.6220000000001
aF1241.1700000000001
aF1241.366
aF1241.412
aF1241.4480000000001
aF1241.452
aF1241.4590000000001
aF1242.4349999999999
aF1242.4459999999999
aF1242.6199999999999
aF1243.098
aF1243.1010000000001
aF1243.1780000000001
aF1243.2650000000001
aF1243.27
aF1243.413
aF1243.414
aF1243.8599999999999
aF1243.865
aF1243.9559999999999
aF1244.386
aF1244.8240000000001
aF1244.9359999999999
aF1244.943
aF1245.354
aF1245.364
aF1245.396
aF1245.3969999999999
aF1245.537
aF1245.8109999999999
aF1246.202
aF1247.114
aF1247.626
aF1247.7239999999999
aF1248.1400000000001
aF1248.1400000000001
aF1248.1579999999999
aF1248.2840000000001
aF1248.655
aF1248.6600000000001
aF1249.404
aF1249.4259999999999
aF1249.722
aF1250.1320000000001
aF1250.1400000000001
aF1250.248
aF1250.307
aF1250.3140000000001
aF1250.319
aF1250.3199999999999
aF1250.422
aF1250.568
aF1250.575
aF1250.9949999999999
aF1251.0920000000001
aF1251.6130000000001
aF1251.6900000000001
aF1251.7090000000001
aF1252.336
aF1252.6020000000001
aF1253.1220000000001
aF1253.4469999999999
aF1253.4829999999999
aF1253.5840000000001
aF1253.5840000000001
aF1254.01
aF1254.421
aF1254.9359999999999
aF1254.942
aF1254.9870000000001
aF1255.2380000000001
aF1255.2460000000001
aF1255.271
aF1255.3579999999999
aF1255.3599999999999
aF1255.6220000000001
aF1255.6669999999999
aF1256.162
aF1256.172
aF1256.857
aF1257.075
aF1257.828
aF1258.0360000000001
aF1258.4200000000001
aF1258.9880000000001
aF1259.1790000000001
aF1259.2460000000001
aF1259.287
aF1259.308
aF1259.395
aF1259.511
aF1259.604
aF1259.7550000000001
aF1259.8910000000001
aF1260.356
aF1260.4749999999999
aF1260.759
aF1260.9369999999999
aF1261.4839999999999
aF1261.675
aF1261.9349999999999
aF1262.1279999999999
aF1262.1849999999999
aF1262.384
aF1262.527
aF1262.528
aF1262.528
aF1262.5409999999999
aF1262.6610000000001
aF1262.723
aF1262.729
aF1262.7460000000001
aF1263.046
aF1263.049
aF1263.0519999999999
aF1263.1769999999999
aF1263.184
aF1263.22
aF1263.2260000000001
aF1263.3399999999999
aF1263.3499999999999
aF1263.4839999999999
aF1263.491
aF1263.5809999999999
aF1263.586
aF1263.8230000000001
aF1263.8630000000001
aF1264.088
aF1264.0909999999999
aF1264.3440000000001
aF1264.5329999999999
aF1264.652
aF1264.7539999999999
aF1265.461
aF1265.5070000000001
aF1265.6900000000001
aF1265.7850000000001
aF1265.7850000000001
aF1265.8009999999999
aF1266.203
aF1266.6420000000001
aF1266.741
aF1266.8589999999999
aF1267.01
aF1267.2080000000001
aF1267.252
aF1267.4000000000001
aF1267.444
aF1267.567
aF1267.8199999999999
aF1267.876
aF1268.0429999999999
aF1268.0599999999999
aF1268.316
aF1268.3330000000001
aF1268.3330000000001
aF1268.5229999999999
aF1268.7860000000001
aF1268.867
aF1269.0340000000001
aF1269.182
aF1269.1890000000001
aF1269.2049999999999
aF1269.836
aF1269.8589999999999
aF1270.2919999999999
aF1270.299
aF1270.3510000000001
aF1270.3620000000001
aF1270.7439999999999
aF1270.751
aF1270.954
aF1271.0540000000001
aF1271.3689999999999
aF1271.4400000000001
aF1271.923
aF1272.0550000000001
aF1272.059
aF1272.098
aF1272.202
aF1272.2619999999999
aF1272.6959999999999
aF1272.6969999999999
aF1273.086
aF1273.1199999999999
aF1273.2550000000001
aF1273.2750000000001
aF1273.309
aF1273.5609999999999
aF1273.681
aF1273.8240000000001
aF1274.0650000000001
aF1274.202
aF1274.4010000000001
aF1274.8699999999999
aF1274.896
aF1274.9580000000001
aF1274.9860000000001
aF1275.0830000000001
aF1275.3800000000001
aF1275.3910000000001
aF1275.444
aF1275.6579999999999
aF1275.662
aF1275.7
aF1275.723
aF1275.8240000000001
aF1275.848
aF1275.8620000000001
aF1275.8979999999999
aF1276.0340000000001
aF1276.067
aF1276.133
aF1276.1379999999999
aF1276.1410000000001
aF1276.242
aF1276.9570000000001
aF1276.973
aF1276.979
aF1277.125
aF1277.1300000000001
aF1277.8440000000001
aF1277.8499999999999
aF1277.8510000000001
aF1278.1020000000001
aF1278.1020000000001
aF1278.1279999999999
aF1278.27
aF1278.665
aF1278.7550000000001
aF1278.7570000000001
aF1278.8499999999999
aF1278.932
aF1279.1590000000001
aF1279.5160000000001
aF1279.518
aF1279.596
aF1279.652
aF1279.6659999999999
aF1279.6849999999999
aF1279.6890000000001
aF1279.6949999999999
aF1280.1420000000001
aF1280.364
aF1280.3689999999999
aF1280.463
aF1280.566
aF1280.6790000000001
aF1281.5840000000001
aF1281.934
aF1282.3140000000001
aF1282.316
aF1282.3579999999999
aF1282.3620000000001
aF1282.866
aF1282.8820000000001
aF1283.0050000000001
aF1283.0540000000001
aF1283.2819999999999
aF1283.5730000000001
aF1283.671
aF1284.0350000000001
aF1284.7280000000001
aF1284.896
aF1284.9010000000001
aF1285.1469999999999
aF1285.2139999999999
aF1285.221
aF1285.3630000000001
aF1285.471
aF1285.4749999999999
aF1285.6759999999999
aF1285.6780000000001
aF1286.0160000000001
aF1286.1559999999999
aF1286.5709999999999
aF1286.655
aF1286.797
aF1286.8119999999999
aF1287.0820000000001
aF1287.1210000000001
aF1287.6030000000001
aF1287.671
aF1287.6769999999999
aF1287.684
aF1287.7439999999999
aF1287.7439999999999
aF1287.866
aF1287.8810000000001
aF1287.8920000000001
aF1288.2260000000001
aF1288.665
aF1288.8720000000001
aF1289.355
aF1289.6700000000001
aF1290.268
aF1290.3399999999999
aF1290.3430000000001
aF1290.4580000000001
aF1290.518
aF1291.2639999999999
aF1291.2660000000001
aF1291.298
aF1291.972
aF1292.278
aF1292.357
aF1292.578
aF1292.6579999999999
aF1292.662
aF1293.0940000000001
aF1293.104
aF1293.1079999999999
aF1293.4849999999999
aF1293.5509999999999
aF1293.644
aF1293.6700000000001
aF1293.6980000000001
aF1293.7059999999999
aF1293.75
aF1293.7550000000001
aF1293.912
aF1294.124
aF1294.126
aF1294.3409999999999
aF1294.346
aF1295.1279999999999
aF1295.4739999999999
aF1295.48
aF1295.8140000000001
aF1295.819
aF1295.8699999999999
aF1295.9929999999999
aF1296.441
aF1296.509
aF1296.547
aF1296.6030000000001
aF1296.604
aF1297.0820000000001
aF1297.1020000000001
aF1298.0150000000001
aF1298.1320000000001
aF1298.3489999999999
aF1298.356
aF1298.4860000000001
aF1298.684
aF1298.6890000000001
aF1299.174
aF1299.2180000000001
aF1299.4269999999999
aF1299.481
aF1299.634
aF1300.127
aF1300.3119999999999
aF1300.4749999999999
aF1300.481
aF1300.606
aF1300.7070000000001
aF1300.711
aF1300.7739999999999
aF1300.8030000000001
aF1301.287
aF1302.165
aF1302.261
aF1302.7629999999999
aF1302.8030000000001
aF1302.8040000000001
aF1302.9400000000001
aF1303.1079999999999
aF1303.2929999999999
aF1303.5709999999999
aF1303.8209999999999
aF1303.865
aF1304.1800000000001
aF1304.809
aF1304.875
aF1304.9090000000001
aF1304.9259999999999
aF1305.0239999999999
aF1305.288
aF1305.482
aF1305.5809999999999
aF1305.586
aF1305.6300000000001
aF1305.6379999999999
aF1305.9459999999999
aF1305.9459999999999
aF1306.1569999999999
aF1306.1700000000001
aF1306.4359999999999
aF1307.356
aF1307.365
aF1307.8030000000001
aF1308.4269999999999
aF1308.444
aF1308.537
aF1308.5899999999999
aF1308.6400000000001
aF1308.6559999999999
aF1309.433
aF1309.615
aF1309.636
aF1309.742
aF1310.816
aF1311.001
aF1311.008
aF1312.0940000000001
aF1312.1410000000001
aF1312.356
aF1312.3689999999999
aF1313.316
aF1313.318
aF1313.6400000000001
aF1313.6420000000001
aF1313.7370000000001
aF1313.7380000000001
aF1313.807
aF1314.002
aF1314.46
aF1314.46
aF1314.47
aF1314.864
aF1315.693
aF1315.8530000000001
aF1315.856
aF1315.9059999999999
aF1316.6079999999999
aF1316.6379999999999
aF1316.894
aF1317.127
aF1317.143
aF1317.3989999999999
aF1317.454
aF1318.155
aF1318.164
aF1319.088
aF1319.4280000000001
aF1319.4469999999999
aF1319.451
aF1319.4590000000001
aF1319.9000000000001
aF1319.954
aF1320.134
aF1320.136
aF1320.348
aF1320.7239999999999
aF1320.8009999999999
aF1320.9110000000001
aF1321.3320000000001
aF1322.0260000000001
aF1322.029
aF1322.213
aF1322.2170000000001
aF1322.326
aF1322.461
aF1322.463
aF1322.5599999999999
aF1322.586
aF1322.807
aF1323.71
aF1323.7460000000001
aF1323.845
aF1323.848
aF1323.933
aF1323.9839999999999
aF1324.0119999999999
aF1324.2850000000001
aF1324.2929999999999
aF1324.4100000000001
aF1324.7919999999999
aF1324.797
aF1324.8240000000001
aF1324.914
aF1325.346
aF1326.056
aF1326.0630000000001
aF1326.307
aF1326.4110000000001
aF1326.412
aF1326.8219999999999
aF1327.248
aF1327.2760000000001
aF1327.383
aF1327.549
aF1327.557
aF1327.9079999999999
aF1327.912
aF1328.0319999999999
aF1328.171
aF1328.2370000000001
aF1328.278
aF1328.319
aF1328.3579999999999
aF1329.037
aF1329.123
aF1329.1279999999999
aF1329.846
aF1329.8489999999999
aF1330.105
aF1330.125
aF1330.134
aF1330.2729999999999
aF1330.2760000000001
aF1330.405
aF1330.5650000000001
aF1330.758
aF1331.0039999999999
aF1331.0039999999999
aF1331.1120000000001
aF1331.2070000000001
aF1331.222
aF1331.24
aF1331.261
aF1331.5619999999999
aF1331.6600000000001
aF1331.665
aF1331.808
aF1331.998
aF1332.0619999999999
aF1332.6099999999999
aF1333.0340000000001
aF1333.0889999999999
aF1334.3030000000001
aF1334.55
aF1334.779
aF1334.854
aF1335.8710000000001
aF1335.904
aF1335.942
aF1336.346
aF1336.3489999999999
aF1336.4000000000001
aF1336.4300000000001
aF1336.721
aF1336.952
aF1336.9570000000001
aF1337.0170000000001
aF1337.02
aF1337.152
aF1337.1859999999999
aF1337.6220000000001
aF1337.7860000000001
aF1337.7940000000001
aF1337.798
aF1337.854
aF1338.123
aF1338.2139999999999
aF1338.606
aF1338.6489999999999
aF1338.7280000000001
aF1338.8109999999999
aF1338.8340000000001
aF1339.248
aF1339.2539999999999
aF1339.4100000000001
aF1339.7260000000001
aF1339.759
aF1339.771
aF1339.8399999999999
aF1339.8399999999999
aF1339.876
aF1340.48
aF1340.597
aF1340.605
aF1340.8589999999999
aF1340.8599999999999
aF1340.9079999999999
aF1341.0429999999999
aF1341.472
aF1341.739
aF1341.8900000000001
aF1341.989
aF1342.1800000000001
aF1342.193
aF1342.6569999999999
aF1342.893
aF1342.943
aF1342.9839999999999
aF1343.296
aF1343.4179999999999
aF1343.596
aF1343.597
aF1343.7550000000001
aF1343.77
aF1343.7809999999999
aF1343.8589999999999
aF1343.884
aF1343.9079999999999
aF1344.0899999999999
aF1344.1289999999999
aF1344.1400000000001
aF1344.1400000000001
aF1344.1420000000001
aF1344.2629999999999
aF1344.2940000000001
aF1344.296
aF1344.299
aF1344.4259999999999
aF1344.5799999999999
aF1344.6099999999999
aF1344.8009999999999
aF1344.9159999999999
aF1344.9159999999999
aF1345.027
aF1345.3530000000001
aF1345.5940000000001
aF1345.645
aF1346.0940000000001
aF1346.27
aF1346.2739999999999
aF1346.6020000000001
aF1346.6369999999999
aF1346.6379999999999
aF1347.356
aF1347.896
aF1347.9079999999999
aF1348.2919999999999
aF1348.2940000000001
aF1348.3299999999999
aF1348.7070000000001
aF1348.8869999999999
aF1349.134
aF1349.1369999999999
aF1349.4169999999999
aF1349.454
aF1350.194
aF1350.2070000000001
aF1350.356
aF1350.7339999999999
aF1350.758
aF1350.826
aF1350.8320000000001
aF1351.278
aF1351.8399999999999
aF1352.191
aF1352.4169999999999
aF1352.5599999999999
aF1352.703
aF1352.712
aF1353.2360000000001
aF1353.912
aF1353.912
aF1354.104
aF1354.1289999999999
aF1354.1590000000001
aF1354.2139999999999
aF1354.2919999999999
aF1354.596
aF1354.6020000000001
aF1354.8510000000001
aF1354.933
aF1354.9449999999999
aF1355.299
aF1355.414
aF1355.8409999999999
aF1356.182
aF1356.194
aF1356.422
aF1356.444
aF1356.836
aF1357.5
aF1357.547
aF1357.5699999999999
aF1357.5699999999999
aF1358.213
aF1358.4069999999999
aF1358.5060000000001
aF1358.5719999999999
aF1359.0260000000001
aF1359.03
aF1359.0519999999999
aF1359.192
aF1359.299
aF1359.3209999999999
aF1360.0219999999999
aF1360.421
aF1361.028
aF1361.0319999999999
aF1361.0519999999999
aF1361.133
aF1361.1800000000001
aF1361.2840000000001
aF1361.3130000000001
aF1361.356
aF1361.3630000000001
aF1361.373
aF1361.5219999999999
aF1362.058
aF1362.5050000000001
aF1362.5219999999999
aF1362.567
aF1362.5719999999999
aF1362.8230000000001
aF1363.3720000000001
aF1363.3969999999999
aF1363.4380000000001
aF1363.4400000000001
aF1363.521
aF1363.7070000000001
aF1363.8620000000001
aF1363.865
aF1363.893
aF1363.9000000000001
aF1365.2560000000001
aF1365.26
aF1365.5070000000001
aF1365.7670000000001
aF1365.886
aF1365.8869999999999
aF1365.902
aF1366.0129999999999
aF1366.357
aF1366.4449999999999
aF1366.49
aF1366.5740000000001
aF1366.798
aF1366.8119999999999
aF1366.98
aF1367.758
aF1367.761
aF1367.855
aF1367.97
aF1368.0
aF1368.1700000000001
aF1368.1700000000001
aF1368.1969999999999
aF1368.3099999999999
aF1368.807
aF1368.9079999999999
aF1369.1120000000001
aF1369.126
aF1369.4300000000001
aF1369.6559999999999
aF1369.6559999999999
aF1369.7149999999999
aF1369.796
aF1370.046
aF1370.0630000000001
aF1370.0899999999999
aF1370.0989999999999
aF1370.104
aF1371.1579999999999
aF1371.2059999999999
aF1371.2080000000001
aF1371.4010000000001
aF1371.402
aF1371.6900000000001
aF1371.808
aF1372.569
aF1372.6179999999999
aF1372.6289999999999
aF1372.704
aF1372.7370000000001
aF1372.8389999999999
aF1372.924
aF1372.9349999999999
aF1373.127
aF1373.279
aF1373.634
aF1373.8779999999999
aF1373.8920000000001
aF1374.309
aF1374.328
aF1374.537
aF1374.684
aF1374.684
aF1375.557
aF1375.665
aF1376.1079999999999
aF1376.1099999999999
aF1376.4459999999999
aF1376.7
aF1376.7059999999999
aF1376.808
aF1376.9090000000001
aF1377.0329999999999
aF1377.059
aF1377.1289999999999
aF1377.7850000000001
aF1377.8399999999999
aF1378.5989999999999
aF1378.848
aF1379.4780000000001
aF1379.4860000000001
aF1379.5519999999999
aF1379.5909999999999
aF1379.673
aF1379.963
aF1380.0719999999999
aF1380.078
aF1380.193
aF1380.1959999999999
aF1380.3610000000001
aF1380.367
aF1380.5119999999999
aF1380.5599999999999
aF1381.2370000000001
aF1381.3710000000001
aF1381.4739999999999
aF1381.4960000000001
aF1381.7360000000001
aF1381.7539999999999
aF1381.816
aF1381.828
aF1382.0920000000001
aF1382.097
aF1382.1600000000001
aF1382.3299999999999
aF1382.431
aF1382.431
aF1382.625
aF1382.8050000000001
aF1382.9760000000001
aF1382.979
aF1383.1130000000001
aF1383.3900000000001
aF1383.3900000000001
aF1383.7570000000001
aF1384.0989999999999
aF1384.3309999999999
aF1384.3430000000001
aF1384.4770000000001
aF1384.674
aF1384.8320000000001
aF1385.5029999999999
aF1385.548
aF1385.894
aF1385.9000000000001
aF1385.9369999999999
aF1386.04
aF1386.0809999999999
aF1386.085
aF1386.117
aF1386.1310000000001
aF1386.297
aF1386.3969999999999
aF1386.4179999999999
aF1386.452
aF1386.595
aF1386.742
aF1386.7429999999999
aF1386.838
aF1386.9649999999999
aF1387.059
aF1387.3989999999999
aF1387.7539999999999
aF1387.7719999999999
aF1387.798
aF1387.903
aF1387.9159999999999
aF1388.078
aF1388.4739999999999
aF1388.606
aF1388.9059999999999
aF1389.239
aF1389.25
aF1389.364
aF1389.366
aF1389.508
aF1390.4580000000001
aF1390.4929999999999
aF1390.8199999999999
aF1390.875
aF1390.941
aF1390.9770000000001
aF1390.9880000000001
aF1391.0440000000001
aF1391.694
aF1391.701
aF1391.971
aF1392.1010000000001
aF1392.104
aF1392.356
aF1392.374
aF1392.662
aF1392.78
aF1392.953
aF1392.9570000000001
aF1392.998
aF1393.104
aF1393.1780000000001
aF1393.7449999999999
aF1393.7570000000001
aF1393.9490000000001
aF1393.9870000000001
aF1393.991
aF1394.2470000000001
aF1394.3720000000001
aF1394.5540000000001
aF1394.9390000000001
aF1394.9570000000001
aF1395.011
aF1395.0139999999999
aF1395.3879999999999
aF1396.0920000000001
aF1396.096
aF1396.444
aF1396.8099999999999
aF1396.8209999999999
aF1396.8240000000001
aF1396.8240000000001
aF1396.9680000000001
aF1397.213
aF1397.441
aF1397.46
aF1397.4639999999999
aF1397.684
aF1398.1099999999999
aF1398.126
aF1398.144
aF1398.489
aF1398.5239999999999
aF1398.549
aF1399.654
aF1399.9649999999999
aF1399.97
aF1399.9939999999999
aF1400.0340000000001
aF1400.1679999999999
aF1400.202
aF1400.365
aF1400.5889999999999
aF1401.0319999999999
aF1401.1310000000001
aF1401.182
aF1401.2049999999999
aF1401.4079999999999
aF1401.4690000000001
aF1401.47
aF1401.4870000000001
aF1402.046
aF1402.299
aF1402.355
aF1402.3599999999999
aF1402.538
aF1403.0909999999999
aF1403.4179999999999
aF1403.4269999999999
aF1403.7660000000001
aF1403.98
aF1404.3340000000001
aF1404.4580000000001
aF1404.47
aF1405.038
aF1405.1199999999999
aF1405.153
aF1406.2439999999999
aF1406.259
aF1407.117
aF1407.771
aF1407.9829999999999
aF1407.9839999999999
aF1408.1389999999999
aF1408.326
aF1409.192
aF1410.248
aF1410.261
aF1410.3099999999999
aF1410.328
aF1410.721
aF1411.1379999999999
aF1412.27
aF1412.2819999999999
aF1412.434
aF1412.5239999999999
aF1412.566
aF1413.04
aF1413.154
aF1413.405
aF1413.412
aF1413.5050000000001
aF1414.529
aF1414.538
aF1414.7180000000001
aF1414.9200000000001
aF1415.01
aF1415.3130000000001
aF1416.528
aF1416.7380000000001
aF1416.998
aF1417.0319999999999
aF1417.0540000000001
aF1417.694
aF1417.895
aF1417.934
aF1418.72
aF1419.0630000000001
aF1419.067
aF1419.0830000000001
aF1419.085
aF1419.7860000000001
aF1419.8050000000001
aF1420.0360000000001
aF1420.1110000000001
aF1420.114
aF1420.222
aF1420.7059999999999
aF1420.8219999999999
aF1421.1199999999999
aF1421.136
aF1421.204
aF1421.4300000000001
aF1421.5609999999999
aF1421.5650000000001
aF1421.7180000000001
aF1421.742
aF1421.8800000000001
aF1422.0250000000001
aF1422.3440000000001
aF1422.6900000000001
aF1422.752
aF1422.788
aF1423.2739999999999
aF1423.2940000000001
aF1423.7860000000001
aF1423.788
aF1424.046
aF1424.046
aF1424.4949999999999
aF1424.567
aF1424.778
aF1424.7819999999999
aF1425.0119999999999
aF1425.086
aF1425.694
aF1425.7449999999999
aF1425.8309999999999
aF1425.864
aF1426.2270000000001
aF1427.0
aF1427.0
aF1427.066
aF1427.337
aF1427.498
aF1427.5060000000001
aF1427.9110000000001
aF1427.9200000000001
aF1428.0319999999999
aF1428.0350000000001
aF1428.8499999999999
aF1429.538
aF1429.6489999999999
aF1429.6600000000001
aF1429.6610000000001
aF1429.6669999999999
aF1430.3
aF1430.346
aF1430.759
aF1431.241
aF1432.0419999999999
aF1432.633
aF1432.7619999999999
aF1432.9359999999999
aF1432.9380000000001
aF1433.1700000000001
aF1433.24
aF1433.242
aF1433.556
aF1433.5599999999999
aF1433.9680000000001
aF1434.1510000000001
aF1434.374
aF1434.396
aF1434.4780000000001
aF1434.4880000000001
aF1434.721
aF1434.722
aF1435.0519999999999
aF1435.058
aF1435.396
aF1435.6099999999999
aF1435.6479999999999
aF1435.6500000000001
aF1436.386
aF1436.3869999999999
aF1437.1379999999999
aF1437.5809999999999
aF1437.5899999999999
aF1438.3810000000001
aF1438.3920000000001
aF1438.4200000000001
aF1438.433
aF1439.0989999999999
aF1439.4760000000001
aF1440.02
aF1440.021
aF1440.2239999999999
aF1440.2239999999999
aF1440.6120000000001
aF1440.6980000000001
aF1440.768
aF1440.7760000000001
aF1440.954
aF1441.0029999999999
aF1441.0150000000001
aF1441.1880000000001
aF1441.192
aF1441.307
aF1441.3679999999999
aF1441.6980000000001
aF1441.806
aF1442.145
aF1442.4780000000001
aF1442.4970000000001
aF1442.6189999999999
aF1442.6199999999999
aF1442.9939999999999
aF1443.4739999999999
aF1443.5129999999999
aF1443.5699999999999
aF1443.5699999999999
aF1443.963
aF1444.2660000000001
aF1444.335
aF1444.375
aF1444.502
aF1444.502
aF1444.7249999999999
aF1445.0820000000001
aF1445.3420000000001
aF1445.7080000000001
aF1446.048
aF1446.048
aF1446.1300000000001
aF1446.163
aF1446.2270000000001
aF1446.2629999999999
aF1447.587
aF1447.6079999999999
aF1447.7280000000001
aF1447.8389999999999
aF1448.038
aF1448.171
aF1448.289
aF1448.722
aF1448.7670000000001
aF1448.9559999999999
aF1449.1189999999999
aF1449.1220000000001
aF1449.682
aF1449.6880000000001
aF1449.7070000000001
aF1449.8240000000001
aF1449.875
aF1450.3150000000001
aF1450.6120000000001
aF1450.6189999999999
aF1450.7619999999999
aF1450.7850000000001
aF1450.846
aF1450.9259999999999
aF1451.0139999999999
aF1451.0619999999999
aF1451.5150000000001
aF1451.5989999999999
aF1451.6369999999999
aF1451.8299999999999
aF1452.1389999999999
aF1452.27
aF1452.723
aF1453.0550000000001
aF1453.0550000000001
aF1453.386
aF1453.874
aF1453.904
aF1453.9690000000001
aF1453.972
aF1454.1759999999999
aF1454.4880000000001
aF1454.499
aF1454.6420000000001
aF1455.104
aF1455.356
aF1455.7639999999999
aF1455.778
aF1456.154
aF1456.162
aF1456.2080000000001
aF1456.356
aF1456.3610000000001
aF1456.364
aF1456.7860000000001
aF1457.7650000000001
aF1457.819
aF1457.838
aF1458.3199999999999
aF1458.354
aF1459.3499999999999
aF1459.375
aF1459.3800000000001
aF1459.396
aF1459.4300000000001
aF1459.539
aF1459.7619999999999
aF1459.771
aF1459.873
aF1460.8340000000001
aF1460.8420000000001
aF1460.8699999999999
aF1461.212
aF1461.212
aF1461.3579999999999
aF1461.76
aF1461.769
aF1462.3499999999999
aF1462.3530000000001
aF1463.182
aF1463.296
aF1463.299
aF1463.3240000000001
aF1463.3879999999999
aF1463.6610000000001
aF1464.461
aF1464.8109999999999
aF1464.8599999999999
aF1464.896
aF1465.518
aF1465.5239999999999
aF1465.5999999999999
aF1465.9349999999999
aF1465.9390000000001
aF1466.7080000000001
aF1466.8119999999999
aF1466.875
aF1467.586
aF1467.644
aF1467.6500000000001
aF1467.6579999999999
aF1467.8820000000001
aF1468.2380000000001
aF1468.319
aF1468.874
aF1468.8810000000001
aF1468.8869999999999
aF1468.9849999999999
aF1469.0909999999999
aF1469.0909999999999
aF1469.0999999999999
aF1469.348
aF1469.3979999999999
aF1469.4069999999999
aF1469.422
aF1469.6400000000001
aF1469.664
aF1471.0150000000001
aF1471.0909999999999
aF1471.6800000000001
aF1471.9300000000001
aF1471.95
aF1471.961
aF1472.2460000000001
aF1472.252
aF1472.6759999999999
aF1472.922
aF1472.9939999999999
aF1473.366
aF1473.3699999999999
aF1473.5940000000001
aF1473.855
aF1473.8989999999999
aF1474.2739999999999
aF1474.557
aF1474.558
aF1474.5650000000001
aF1474.566
aF1474.5909999999999
aF1474.6020000000001
aF1474.7760000000001
aF1474.787
aF1474.8219999999999
aF1474.828
aF1474.865
aF1475.076
aF1475.097
aF1475.0989999999999
aF1475.1130000000001
aF1475.146
aF1475.7
aF1475.796
aF1475.8430000000001
aF1475.8789999999999
aF1475.9200000000001
aF1476.365
aF1476.6780000000001
aF1476.6859999999999
aF1476.71
aF1476.72
aF1476.796
aF1476.8040000000001
aF1476.808
aF1477.29
aF1477.3140000000001
aF1477.5060000000001
aF1478.164
aF1478.191
aF1478.443
aF1478.595
aF1478.605
aF1478.634
aF1479.075
aF1479.2460000000001
aF1479.5630000000001
aF1479.5699999999999
aF1479.8579999999999
aF1480.232
aF1480.258
aF1480.268
aF1480.3009999999999
aF1480.3579999999999
aF1480.442
aF1480.4480000000001
aF1480.568
aF1480.9390000000001
aF1481.182
aF1481.1900000000001
aF1481.3219999999999
aF1481.3810000000001
aF1482.0519999999999
aF1482.6389999999999
aF1482.674
aF1482.7739999999999
aF1482.921
aF1483.2460000000001
aF1483.5650000000001
aF1483.6110000000001
aF1483.6110000000001
aF1483.8140000000001
aF1483.998
aF1484.124
aF1484.164
aF1484.1700000000001
aF1484.182
aF1484.278
aF1484.3579999999999
aF1484.3599999999999
aF1484.4010000000001
aF1484.422
aF1485.1320000000001
aF1485.1400000000001
aF1485.7
aF1486.3489999999999
aF1487.0640000000001
aF1487.0820000000001
aF1487.7059999999999
aF1487.8720000000001
aF1487.886
aF1488.7170000000001
aF1488.7190000000001
aF1488.9939999999999
aF1489.1990000000001
aF1489.4970000000001
aF1489.502
aF1489.5409999999999
aF1489.694
aF1489.7950000000001
aF1489.8699999999999
aF1490.2159999999999
aF1490.578
aF1490.5830000000001
aF1490.604
aF1490.873
aF1491.2370000000001
aF1491.5419999999999
aF1491.569
aF1491.752
aF1491.7529999999999
aF1491.9200000000001
aF1491.921
aF1491.991
aF1492.105
aF1492.124
aF1492.2180000000001
aF1492.566
aF1492.5899999999999
aF1492.8240000000001
aF1492.8340000000001
aF1493.117
aF1493.2660000000001
aF1493.396
aF1493.568
aF1493.723
aF1494.3030000000001
aF1494.4079999999999
aF1494.4090000000001
aF1494.607
aF1494.6759999999999
aF1494.692
aF1494.701
aF1495.0599999999999
aF1495.2670000000001
aF1495.277
aF1495.49
aF1496.249
aF1496.308
aF1496.5150000000001
aF1496.519
aF1496.636
aF1496.6379999999999
aF1496.796
aF1496.9259999999999
aF1496.932
aF1497.028
aF1497.1880000000001
aF1497.2329999999999
aF1497.2729999999999
aF1497.3340000000001
aF1497.5519999999999
aF1497.865
aF1497.953
aF1497.9690000000001
aF1497.9760000000001
aF1498.1800000000001
aF1498.7460000000001
aF1498.7750000000001
aF1498.78
aF1498.788
aF1498.9000000000001
aF1499.028
aF1499.0509999999999
aF1499.222
aF1499.2260000000001
aF1499.5360000000001
aF1499.8610000000001
aF1499.951
aF1500.075
aF1500.075
aF1500.367
aF1500.3689999999999
aF1500.48
aF1500.5170000000001
aF1501.4739999999999
aF1501.654
aF1501.6690000000001
aF1501.711
aF1501.7139999999999
aF1501.7239999999999
aF1501.9280000000001
aF1502.21
aF1502.213
aF1502.3030000000001
aF1503.155
aF1503.472
aF1503.7149999999999
aF1503.848
aF1504.0129999999999
aF1504.0519999999999
aF1504.298
aF1504.306
aF1504.5260000000001
aF1504.626
aF1504.9400000000001
aF1505.213
aF1505.9870000000001
aF1506.4169999999999
aF1506.4200000000001
aF1506.5599999999999
aF1506.8019999999999
aF1506.8050000000001
aF1506.809
aF1507.336
aF1507.3579999999999
aF1507.3679999999999
aF1507.6300000000001
aF1507.6389999999999
aF1507.7950000000001
aF1507.8019999999999
aF1507.874
aF1507.886
aF1508.4949999999999
aF1508.6210000000001
aF1508.6410000000001
aF1508.6500000000001
aF1508.97
aF1508.9780000000001
aF1508.9829999999999
aF1509.377
aF1509.643
aF1509.6600000000001
aF1510.1579999999999
aF1510.165
aF1510.2280000000001
aF1510.278
aF1510.7329999999999
aF1510.7439999999999
aF1510.819
aF1510.836
aF1510.9390000000001
aF1511.3340000000001
aF1512.0809999999999
aF1512.085
aF1512.4739999999999
aF1512.492
aF1512.568
aF1512.575
aF1512.7339999999999
aF1512.749
aF1512.8699999999999
aF1512.876
aF1513.0160000000001
aF1513.9780000000001
aF1514.242
aF1514.297
aF1514.5709999999999
aF1515.144
aF1515.3
aF1515.588
aF1516.289
aF1516.6700000000001
aF1517.049
aF1517.1420000000001
aF1517.1600000000001
aF1517.2639999999999
aF1517.2739999999999
aF1517.2760000000001
aF1517.7180000000001
aF1517.7270000000001
aF1517.8240000000001
aF1517.9359999999999
aF1518.175
aF1518.7729999999999
aF1519.2829999999999
aF1519.287
aF1519.3920000000001
aF1519.5450000000001
aF1520.402
aF1520.403
aF1520.732
aF1520.7460000000001
aF1520.864
aF1520.886
aF1520.971
aF1521.2280000000001
aF1521.3779999999999
aF1522.5830000000001
aF1522.7560000000001
aF1522.8340000000001
aF1523.0
aF1523.0
aF1523.126
aF1523.2239999999999
aF1523.4359999999999
aF1523.4380000000001
aF1523.578
aF1523.578
aF1524.2639999999999
aF1524.2639999999999
aF1524.425
aF1524.4549999999999
aF1524.4559999999999
aF1524.653
aF1524.7270000000001
aF1524.8510000000001
aF1525.038
aF1525.1769999999999
aF1525.502
aF1525.549
aF1525.663
aF1526.069
aF1526.258
aF1526.4449999999999
aF1526.905
aF1526.9780000000001
aF1527.04
aF1527.078
aF1527.0840000000001
aF1527.096
aF1527.2929999999999
aF1527.3579999999999
aF1527.585
aF1527.6949999999999
aF1528.1130000000001
aF1528.117
aF1528.3309999999999
aF1528.4169999999999
aF1528.424
aF1528.585
aF1528.588
aF1528.932
aF1528.943
aF1529.2539999999999
aF1529.29
aF1529.2929999999999
aF1529.366
aF1529.3689999999999
aF1529.4059999999999
aF1530.136
aF1530.307
aF1530.454
aF1531.0139999999999
aF1531.1980000000001
aF1531.5809999999999
aF1531.653
aF1531.664
aF1531.877
aF1531.961
aF1532.24
aF1532.9280000000001
aF1533.1310000000001
aF1533.1479999999999
aF1533.202
aF1533.21
aF1533.7239999999999
aF1533.8330000000001
aF1533.8399999999999
aF1534.002
aF1534.0450000000001
aF1534.3800000000001
aF1534.4880000000001
aF1534.566
aF1534.9880000000001
aF1535.0050000000001
aF1535.212
aF1535.2159999999999
aF1535.5039999999999
aF1535.52
aF1535.758
aF1536.056
aF1536.058
aF1536.1120000000001
aF1536.1859999999999
aF1536.1959999999999
aF1536.2280000000001
aF1536.2280000000001
aF1536.664
aF1536.665
aF1536.674
aF1536.8689999999999
aF1536.8800000000001
aF1537.0039999999999
aF1537.01
aF1537.0999999999999
aF1537.181
aF1537.241
aF1537.2449999999999
aF1537.2860000000001
aF1537.287
aF1537.329
aF1537.6199999999999
aF1537.662
aF1537.6700000000001
aF1537.73
aF1537.885
aF1537.9300000000001
aF1537.9459999999999
aF1538.1900000000001
aF1538.1959999999999
aF1538.6969999999999
aF1539.0899999999999
aF1539.2280000000001
aF1539.3299999999999
aF1539.508
aF1539.54
aF1539.6569999999999
aF1539.9480000000001
aF1540.326
aF1540.3820000000001
aF1540.4390000000001
aF1540.4690000000001
aF1540.568
aF1540.6120000000001
aF1540.76
aF1540.777
aF1540.914
aF1541.0719999999999
aF1541.126
aF1541.1600000000001
aF1541.2049999999999
aF1541.537
aF1541.5630000000001
aF1541.5709999999999
aF1541.616
aF1541.6679999999999
aF1541.8520000000001
aF1541.9960000000001
aF1542.0039999999999
aF1542.011
aF1542.098
aF1542.3889999999999
aF1542.462
aF1542.877
aF1542.884
aF1542.9469999999999
aF1543.106
aF1543.1880000000001
aF1543.7159999999999
aF1543.9380000000001
aF1544.1869999999999
aF1544.298
aF1544.3099999999999
aF1544.4469999999999
aF1544.4480000000001
aF1544.4870000000001
aF1544.4880000000001
aF1544.569
aF1544.682
aF1544.8420000000001
aF1545.0840000000001
aF1545.088
aF1545.125
aF1545.528
aF1545.5799999999999
aF1545.587
aF1545.788
aF1545.788
aF1545.8389999999999
aF1545.934
aF1545.9400000000001
aF1546.001
aF1546.0309999999999
aF1546.885
aF1546.921
aF1546.921
aF1547.1790000000001
aF1547.3119999999999
aF1547.5840000000001
aF1547.943
aF1547.944
aF1547.9549999999999
aF1548.579
aF1548.7159999999999
aF1548.7349999999999
aF1548.74
aF1548.847
aF1549.0440000000001
aF1549.0920000000001
aF1549.0940000000001
aF1549.1890000000001
aF1549.53
aF1549.6020000000001
aF1550.498
aF1550.5509999999999
aF1550.6780000000001
aF1550.9269999999999
aF1551.1579999999999
aF1551.502
aF1551.5129999999999
aF1551.5699999999999
aF1551.5699999999999
aF1552.241
aF1552.2429999999999
aF1552.3910000000001
aF1552.8230000000001
aF1552.8240000000001
aF1553.049
aF1553.0820000000001
aF1553.0840000000001
aF1553.3099999999999
aF1553.3140000000001
aF1553.328
aF1553.3679999999999
aF1553.588
aF1553.596
aF1553.972
aF1555.029
aF1555.3030000000001
aF1555.4000000000001
aF1555.404
aF1555.5830000000001
aF1556.6389999999999
aF1556.9960000000001
aF1556.9960000000001
aF1557.0429999999999
aF1557.1700000000001
aF1557.2570000000001
aF1557.5340000000001
aF1557.5360000000001
aF1557.8440000000001
aF1557.8489999999999
aF1558.0440000000001
aF1558.059
aF1558.181
aF1558.191
aF1558.5889999999999
aF1558.6300000000001
aF1558.925
aF1559.212
aF1559.3979999999999
aF1559.7670000000001
aF1560.1130000000001
aF1560.116
aF1560.201
aF1560.203
aF1560.6320000000001
aF1560.8530000000001
aF1561.5640000000001
aF1561.912
aF1562.2529999999999
aF1562.3910000000001
aF1562.4069999999999
aF1562.951
aF1562.954
aF1562.9960000000001
aF1563.511
aF1564.24
aF1564.3320000000001
aF1564.9639999999999
a.